
backtrace_sigcontext:     file format elf32-i386


Disassembly of section .init:

08048648 <_init>:
 8048648:	53                   	push   %ebx
 8048649:	83 ec 08             	sub    $0x8,%esp
 804864c:	e8 00 00 00 00       	call   8048651 <_init+0x9>
 8048651:	5b                   	pop    %ebx
 8048652:	81 c3 a3 19 00 00    	add    $0x19a3,%ebx
 8048658:	8b 83 fc ff ff ff    	mov    -0x4(%ebx),%eax
 804865e:	85 c0                	test   %eax,%eax
 8048660:	74 05                	je     8048667 <_init+0x1f>
 8048662:	e8 69 00 00 00       	call   80486d0 <__gmon_start__@plt>
 8048667:	e8 74 01 00 00       	call   80487e0 <frame_dummy>
 804866c:	e8 7f 04 00 00       	call   8048af0 <__do_global_ctors_aux>
 8048671:	83 c4 08             	add    $0x8,%esp
 8048674:	5b                   	pop    %ebx
 8048675:	c3                   	ret    

Disassembly of section .plt:

08048680 <printf@plt-0x10>:
 8048680:	ff 35 f8 9f 04 08    	pushl  0x8049ff8
 8048686:	ff 25 fc 9f 04 08    	jmp    *0x8049ffc
 804868c:	00 00                	add    %al,(%eax)
	...

08048690 <printf@plt>:
 8048690:	ff 25 00 a0 04 08    	jmp    *0x804a000
 8048696:	68 00 00 00 00       	push   $0x0
 804869b:	e9 e0 ff ff ff       	jmp    8048680 <_init+0x38>

080486a0 <free@plt>:
 80486a0:	ff 25 04 a0 04 08    	jmp    *0x804a004
 80486a6:	68 08 00 00 00       	push   $0x8
 80486ab:	e9 d0 ff ff ff       	jmp    8048680 <_init+0x38>

080486b0 <perror@plt>:
 80486b0:	ff 25 08 a0 04 08    	jmp    *0x804a008
 80486b6:	68 10 00 00 00       	push   $0x10
 80486bb:	e9 c0 ff ff ff       	jmp    8048680 <_init+0x38>

080486c0 <fwrite@plt>:
 80486c0:	ff 25 0c a0 04 08    	jmp    *0x804a00c
 80486c6:	68 18 00 00 00       	push   $0x18
 80486cb:	e9 b0 ff ff ff       	jmp    8048680 <_init+0x38>

080486d0 <__gmon_start__@plt>:
 80486d0:	ff 25 10 a0 04 08    	jmp    *0x804a010
 80486d6:	68 20 00 00 00       	push   $0x20
 80486db:	e9 a0 ff ff ff       	jmp    8048680 <_init+0x38>

080486e0 <exit@plt>:
 80486e0:	ff 25 14 a0 04 08    	jmp    *0x804a014
 80486e6:	68 28 00 00 00       	push   $0x28
 80486eb:	e9 90 ff ff ff       	jmp    8048680 <_init+0x38>

080486f0 <__libc_start_main@plt>:
 80486f0:	ff 25 18 a0 04 08    	jmp    *0x804a018
 80486f6:	68 30 00 00 00       	push   $0x30
 80486fb:	e9 80 ff ff ff       	jmp    8048680 <_init+0x38>

08048700 <fprintf@plt>:
 8048700:	ff 25 1c a0 04 08    	jmp    *0x804a01c
 8048706:	68 38 00 00 00       	push   $0x38
 804870b:	e9 70 ff ff ff       	jmp    8048680 <_init+0x38>

08048710 <backtrace_symbols@plt>:
 8048710:	ff 25 20 a0 04 08    	jmp    *0x804a020
 8048716:	68 40 00 00 00       	push   $0x40
 804871b:	e9 60 ff ff ff       	jmp    8048680 <_init+0x38>

08048720 <sigemptyset@plt>:
 8048720:	ff 25 24 a0 04 08    	jmp    *0x804a024
 8048726:	68 48 00 00 00       	push   $0x48
 804872b:	e9 50 ff ff ff       	jmp    8048680 <_init+0x38>

08048730 <sigaction@plt>:
 8048730:	ff 25 28 a0 04 08    	jmp    *0x804a028
 8048736:	68 50 00 00 00       	push   $0x50
 804873b:	e9 40 ff ff ff       	jmp    8048680 <_init+0x38>

08048740 <backtrace@plt>:
 8048740:	ff 25 2c a0 04 08    	jmp    *0x804a02c
 8048746:	68 58 00 00 00       	push   $0x58
 804874b:	e9 30 ff ff ff       	jmp    8048680 <_init+0x38>

Disassembly of section .text:

08048750 <_start>:
 8048750:	31 ed                	xor    %ebp,%ebp
 8048752:	5e                   	pop    %esi
 8048753:	89 e1                	mov    %esp,%ecx
 8048755:	83 e4 f0             	and    $0xfffffff0,%esp
 8048758:	50                   	push   %eax
 8048759:	54                   	push   %esp
 804875a:	52                   	push   %edx
 804875b:	68 e0 8a 04 08       	push   $0x8048ae0
 8048760:	68 70 8a 04 08       	push   $0x8048a70
 8048765:	51                   	push   %ecx
 8048766:	56                   	push   %esi
 8048767:	68 c6 89 04 08       	push   $0x80489c6
 804876c:	e8 7f ff ff ff       	call   80486f0 <__libc_start_main@plt>
 8048771:	f4                   	hlt    
 8048772:	90                   	nop
 8048773:	90                   	nop
 8048774:	90                   	nop
 8048775:	90                   	nop
 8048776:	90                   	nop
 8048777:	90                   	nop
 8048778:	90                   	nop
 8048779:	90                   	nop
 804877a:	90                   	nop
 804877b:	90                   	nop
 804877c:	90                   	nop
 804877d:	90                   	nop
 804877e:	90                   	nop
 804877f:	90                   	nop

08048780 <__do_global_dtors_aux>:
 8048780:	55                   	push   %ebp
 8048781:	89 e5                	mov    %esp,%ebp
 8048783:	53                   	push   %ebx
 8048784:	83 ec 04             	sub    $0x4,%esp
 8048787:	80 3d 3c a0 04 08 00 	cmpb   $0x0,0x804a03c
 804878e:	75 3f                	jne    80487cf <__do_global_dtors_aux+0x4f>
 8048790:	a1 40 a0 04 08       	mov    0x804a040,%eax
 8048795:	bb 20 9f 04 08       	mov    $0x8049f20,%ebx
 804879a:	81 eb 1c 9f 04 08    	sub    $0x8049f1c,%ebx
 80487a0:	c1 fb 02             	sar    $0x2,%ebx
 80487a3:	83 eb 01             	sub    $0x1,%ebx
 80487a6:	39 d8                	cmp    %ebx,%eax
 80487a8:	73 1e                	jae    80487c8 <__do_global_dtors_aux+0x48>
 80487aa:	8d b6 00 00 00 00    	lea    0x0(%esi),%esi
 80487b0:	83 c0 01             	add    $0x1,%eax
 80487b3:	a3 40 a0 04 08       	mov    %eax,0x804a040
 80487b8:	ff 14 85 1c 9f 04 08 	call   *0x8049f1c(,%eax,4)
 80487bf:	a1 40 a0 04 08       	mov    0x804a040,%eax
 80487c4:	39 d8                	cmp    %ebx,%eax
 80487c6:	72 e8                	jb     80487b0 <__do_global_dtors_aux+0x30>
 80487c8:	c6 05 3c a0 04 08 01 	movb   $0x1,0x804a03c
 80487cf:	83 c4 04             	add    $0x4,%esp
 80487d2:	5b                   	pop    %ebx
 80487d3:	5d                   	pop    %ebp
 80487d4:	c3                   	ret    
 80487d5:	8d 74 26 00          	lea    0x0(%esi,%eiz,1),%esi
 80487d9:	8d bc 27 00 00 00 00 	lea    0x0(%edi,%eiz,1),%edi

080487e0 <frame_dummy>:
 80487e0:	55                   	push   %ebp
 80487e1:	89 e5                	mov    %esp,%ebp
 80487e3:	83 ec 18             	sub    $0x18,%esp
 80487e6:	a1 24 9f 04 08       	mov    0x8049f24,%eax
 80487eb:	85 c0                	test   %eax,%eax
 80487ed:	74 12                	je     8048801 <frame_dummy+0x21>
 80487ef:	b8 00 00 00 00       	mov    $0x0,%eax
 80487f4:	85 c0                	test   %eax,%eax
 80487f6:	74 09                	je     8048801 <frame_dummy+0x21>
 80487f8:	c7 04 24 24 9f 04 08 	movl   $0x8049f24,(%esp)
 80487ff:	ff d0                	call   *%eax
 8048801:	c9                   	leave  
 8048802:	c3                   	ret    
 8048803:	90                   	nop

08048804 <signal_handler>:
#include <stdlib.h>
#include <signal.h>
#include <execinfo.h>

void signal_handler(int signo, struct sigcontext context)	// see the UNDOCUMENTED section in man sigaction
{
 8048804:	55                   	push   %ebp
 8048805:	89 e5                	mov    %esp,%ebp
 8048807:	57                   	push   %edi
 8048808:	53                   	push   %ebx
 8048809:	83 ec 70             	sub    $0x70,%esp
	void *buffer[16] = {0};
 804880c:	8d 5d ac             	lea    -0x54(%ebp),%ebx
 804880f:	b8 00 00 00 00       	mov    $0x0,%eax
 8048814:	ba 10 00 00 00       	mov    $0x10,%edx
 8048819:	89 df                	mov    %ebx,%edi
 804881b:	89 d1                	mov    %edx,%ecx
 804881d:	f3 ab                	rep stos %eax,%es:(%edi)
	char **strings = (char **)NULL;
 804881f:	c7 45 f4 00 00 00 00 	movl   $0x0,-0xc(%ebp)
	size_t i = 0, size = 0;
 8048826:	c7 45 f0 00 00 00 00 	movl   $0x0,-0x10(%ebp)
 804882d:	c7 45 ec 00 00 00 00 	movl   $0x0,-0x14(%ebp)

	if (signo == SIGSEGV)
 8048834:	83 7d 08 0b          	cmpl   $0xb,0x8(%ebp)
 8048838:	75 31                	jne    804886b <signal_handler+0x67>
		fprintf(stderr, "got signal %d, faulty address is %p"
 804883a:	8b 45 44             	mov    0x44(%ebp),%eax
 804883d:	89 c3                	mov    %eax,%ebx
 804883f:	8b 45 60             	mov    0x60(%ebp),%eax
 8048842:	89 c1                	mov    %eax,%ecx
 8048844:	ba 40 8b 04 08       	mov    $0x8048b40,%edx
 8048849:	a1 38 a0 04 08       	mov    0x804a038,%eax
 804884e:	89 5c 24 10          	mov    %ebx,0x10(%esp)
 8048852:	89 4c 24 0c          	mov    %ecx,0xc(%esp)
 8048856:	8b 4d 08             	mov    0x8(%ebp),%ecx
 8048859:	89 4c 24 08          	mov    %ecx,0x8(%esp)
 804885d:	89 54 24 04          	mov    %edx,0x4(%esp)
 8048861:	89 04 24             	mov    %eax,(%esp)
 8048864:	e8 97 fe ff ff       	call   8048700 <fprintf@plt>
 8048869:	eb 1d                	jmp    8048888 <signal_handler+0x84>
			"frome %p\n", signo, (void *)context.cr2, (void *)context.eip);
	else
		fprintf(stderr, "got signal %d\n", signo);
 804886b:	ba 6d 8b 04 08       	mov    $0x8048b6d,%edx
 8048870:	a1 38 a0 04 08       	mov    0x804a038,%eax
 8048875:	8b 4d 08             	mov    0x8(%ebp),%ecx
 8048878:	89 4c 24 08          	mov    %ecx,0x8(%esp)
 804887c:	89 54 24 04          	mov    %edx,0x4(%esp)
 8048880:	89 04 24             	mov    %eax,(%esp)
 8048883:	e8 78 fe ff ff       	call   8048700 <fprintf@plt>

	size = backtrace(buffer, 16);
 8048888:	c7 44 24 04 10 00 00 	movl   $0x10,0x4(%esp)
 804888f:	00 
 8048890:	8d 45 ac             	lea    -0x54(%ebp),%eax
 8048893:	89 04 24             	mov    %eax,(%esp)
 8048896:	e8 a5 fe ff ff       	call   8048740 <backtrace@plt>
 804889b:	89 45 ec             	mov    %eax,-0x14(%ebp)
	fprintf(stderr, "Obtained %zd stack frames.", size);
 804889e:	ba 7c 8b 04 08       	mov    $0x8048b7c,%edx
 80488a3:	a1 38 a0 04 08       	mov    0x804a038,%eax
 80488a8:	8b 4d ec             	mov    -0x14(%ebp),%ecx
 80488ab:	89 4c 24 08          	mov    %ecx,0x8(%esp)
 80488af:	89 54 24 04          	mov    %edx,0x4(%esp)
 80488b3:	89 04 24             	mov    %eax,(%esp)
 80488b6:	e8 45 fe ff ff       	call   8048700 <fprintf@plt>
	// overwrite sigaction with caller's address(address in libc.so)
	buffer[1] = (void *)context.eip; // buffer[1] is address that in crashed function
 80488bb:	8b 45 44             	mov    0x44(%ebp),%eax
 80488be:	89 45 b0             	mov    %eax,-0x50(%ebp)
	if ((strings = backtrace_symbols(buffer, size)) == NULL)
 80488c1:	8b 45 ec             	mov    -0x14(%ebp),%eax
 80488c4:	89 44 24 04          	mov    %eax,0x4(%esp)
 80488c8:	8d 45 ac             	lea    -0x54(%ebp),%eax
 80488cb:	89 04 24             	mov    %eax,(%esp)
 80488ce:	e8 3d fe ff ff       	call   8048710 <backtrace_symbols@plt>
 80488d3:	89 45 f4             	mov    %eax,-0xc(%ebp)
 80488d6:	83 7d f4 00          	cmpl   $0x0,-0xc(%ebp)
 80488da:	75 18                	jne    80488f4 <signal_handler+0xf0>
	{
		perror("backtrace_symbols.");
 80488dc:	c7 04 24 97 8b 04 08 	movl   $0x8048b97,(%esp)
 80488e3:	e8 c8 fd ff ff       	call   80486b0 <perror@plt>
		exit(EXIT_FAILURE);
 80488e8:	c7 04 24 01 00 00 00 	movl   $0x1,(%esp)
 80488ef:	e8 ec fd ff ff       	call   80486e0 <exit@plt>
	}
	fprintf(stderr, "stack trace:\n");
 80488f4:	a1 38 a0 04 08       	mov    0x804a038,%eax
 80488f9:	89 c2                	mov    %eax,%edx
 80488fb:	b8 aa 8b 04 08       	mov    $0x8048baa,%eax
 8048900:	89 54 24 0c          	mov    %edx,0xc(%esp)
 8048904:	c7 44 24 08 0d 00 00 	movl   $0xd,0x8(%esp)
 804890b:	00 
 804890c:	c7 44 24 04 01 00 00 	movl   $0x1,0x4(%esp)
 8048913:	00 
 8048914:	89 04 24             	mov    %eax,(%esp)
 8048917:	e8 a4 fd ff ff       	call   80486c0 <fwrite@plt>
	for (i = 0; i < size; i++)
 804891c:	c7 45 f0 00 00 00 00 	movl   $0x0,-0x10(%ebp)
 8048923:	eb 30                	jmp    8048955 <signal_handler+0x151>
	{
		fprintf(stderr, "%d: %s\n", i, strings[i]);
 8048925:	8b 45 f0             	mov    -0x10(%ebp),%eax
 8048928:	c1 e0 02             	shl    $0x2,%eax
 804892b:	03 45 f4             	add    -0xc(%ebp),%eax
 804892e:	8b 08                	mov    (%eax),%ecx
 8048930:	ba b8 8b 04 08       	mov    $0x8048bb8,%edx
 8048935:	a1 38 a0 04 08       	mov    0x804a038,%eax
 804893a:	89 4c 24 0c          	mov    %ecx,0xc(%esp)
 804893e:	8b 4d f0             	mov    -0x10(%ebp),%ecx
 8048941:	89 4c 24 08          	mov    %ecx,0x8(%esp)
 8048945:	89 54 24 04          	mov    %edx,0x4(%esp)
 8048949:	89 04 24             	mov    %eax,(%esp)
 804894c:	e8 af fd ff ff       	call   8048700 <fprintf@plt>
	{
		perror("backtrace_symbols.");
		exit(EXIT_FAILURE);
	}
	fprintf(stderr, "stack trace:\n");
	for (i = 0; i < size; i++)
 8048951:	83 45 f0 01          	addl   $0x1,-0x10(%ebp)
 8048955:	8b 45 f0             	mov    -0x10(%ebp),%eax
 8048958:	3b 45 ec             	cmp    -0x14(%ebp),%eax
 804895b:	72 c8                	jb     8048925 <signal_handler+0x121>
	{
		fprintf(stderr, "%d: %s\n", i, strings[i]);
	}
	free(strings);
 804895d:	8b 45 f4             	mov    -0xc(%ebp),%eax
 8048960:	89 04 24             	mov    %eax,(%esp)
 8048963:	e8 38 fd ff ff       	call   80486a0 <free@plt>
	exit(0);
 8048968:	c7 04 24 00 00 00 00 	movl   $0x0,(%esp)
 804896f:	e8 6c fd ff ff       	call   80486e0 <exit@plt>

08048974 <func_a>:
}

int func_a(int a, char b)
{
 8048974:	55                   	push   %ebp
 8048975:	89 e5                	mov    %esp,%ebp
 8048977:	83 ec 14             	sub    $0x14,%esp
 804897a:	8b 45 0c             	mov    0xc(%ebp),%eax
 804897d:	88 45 ec             	mov    %al,-0x14(%ebp)
	char *p = (char *)0xdeadbeef;
 8048980:	c7 45 fc ef be ad de 	movl   $0xdeadbeef,-0x4(%ebp)
	a += b;
 8048987:	0f be 45 ec          	movsbl -0x14(%ebp),%eax
 804898b:	01 45 08             	add    %eax,0x8(%ebp)
	*p = 100;	// CRASH here !!
 804898e:	8b 45 fc             	mov    -0x4(%ebp),%eax
 8048991:	c6 00 64             	movb   $0x64,(%eax)
	return 2 * a;
 8048994:	8b 45 08             	mov    0x8(%ebp),%eax
 8048997:	01 c0                	add    %eax,%eax
}
 8048999:	c9                   	leave  
 804899a:	c3                   	ret    

0804899b <func_b>:

int func_b()
{
 804899b:	55                   	push   %ebp
 804899c:	89 e5                	mov    %esp,%ebp
 804899e:	83 ec 18             	sub    $0x18,%esp
	int res, a = 5;
 80489a1:	c7 45 f8 05 00 00 00 	movl   $0x5,-0x8(%ebp)
	res = 5 + func_a(a, 't');
 80489a8:	c7 44 24 04 74 00 00 	movl   $0x74,0x4(%esp)
 80489af:	00 
 80489b0:	8b 45 f8             	mov    -0x8(%ebp),%eax
 80489b3:	89 04 24             	mov    %eax,(%esp)
 80489b6:	e8 b9 ff ff ff       	call   8048974 <func_a>
 80489bb:	83 c0 05             	add    $0x5,%eax
 80489be:	89 45 fc             	mov    %eax,-0x4(%ebp)
	return res;
 80489c1:	8b 45 fc             	mov    -0x4(%ebp),%eax
}
 80489c4:	c9                   	leave  
 80489c5:	c3                   	ret    

080489c6 <main>:

int main(int argc, const char *argv[])
{
 80489c6:	55                   	push   %ebp
 80489c7:	89 e5                	mov    %esp,%ebp
 80489c9:	83 e4 f0             	and    $0xfffffff0,%esp
 80489cc:	81 ec a0 00 00 00    	sub    $0xa0,%esp
	// install signal handler
	struct sigaction action;
	action.sa_handler = (void (*)(int))signal_handler;
 80489d2:	b8 04 88 04 08       	mov    $0x8048804,%eax
 80489d7:	89 44 24 14          	mov    %eax,0x14(%esp)
	sigemptyset(&action.sa_mask);
 80489db:	8d 44 24 14          	lea    0x14(%esp),%eax
 80489df:	83 c0 04             	add    $0x4,%eax
 80489e2:	89 04 24             	mov    %eax,(%esp)
 80489e5:	e8 36 fd ff ff       	call   8048720 <sigemptyset@plt>
	action.sa_flags = SA_RESTART;
 80489ea:	c7 84 24 98 00 00 00 	movl   $0x10000000,0x98(%esp)
 80489f1:	00 00 00 10 

	if (sigaction(SIGSEGV, &action, NULL) < 0
	 || sigaction(SIGSEGV, &action, NULL) < 0)
 80489f5:	8d 44 24 14          	lea    0x14(%esp),%eax
 80489f9:	c7 44 24 08 00 00 00 	movl   $0x0,0x8(%esp)
 8048a00:	00 
 8048a01:	89 44 24 04          	mov    %eax,0x4(%esp)
 8048a05:	c7 04 24 0b 00 00 00 	movl   $0xb,(%esp)
 8048a0c:	e8 1f fd ff ff       	call   8048730 <sigaction@plt>
	struct sigaction action;
	action.sa_handler = (void (*)(int))signal_handler;
	sigemptyset(&action.sa_mask);
	action.sa_flags = SA_RESTART;

	if (sigaction(SIGSEGV, &action, NULL) < 0
 8048a11:	85 c0                	test   %eax,%eax
 8048a13:	78 20                	js     8048a35 <main+0x6f>
	 || sigaction(SIGSEGV, &action, NULL) < 0)
 8048a15:	8d 44 24 14          	lea    0x14(%esp),%eax
 8048a19:	c7 44 24 08 00 00 00 	movl   $0x0,0x8(%esp)
 8048a20:	00 
 8048a21:	89 44 24 04          	mov    %eax,0x4(%esp)
 8048a25:	c7 04 24 0b 00 00 00 	movl   $0xb,(%esp)
 8048a2c:	e8 ff fc ff ff       	call   8048730 <sigaction@plt>
	struct sigaction action;
	action.sa_handler = (void (*)(int))signal_handler;
	sigemptyset(&action.sa_mask);
	action.sa_flags = SA_RESTART;

	if (sigaction(SIGSEGV, &action, NULL) < 0
 8048a31:	85 c0                	test   %eax,%eax
 8048a33:	79 18                	jns    8048a4d <main+0x87>
	 || sigaction(SIGSEGV, &action, NULL) < 0)
	{
		perror("sigaction.");
 8048a35:	c7 04 24 c0 8b 04 08 	movl   $0x8048bc0,(%esp)
 8048a3c:	e8 6f fc ff ff       	call   80486b0 <perror@plt>
		exit(EXIT_FAILURE);
 8048a41:	c7 04 24 01 00 00 00 	movl   $0x1,(%esp)
 8048a48:	e8 93 fc ff ff       	call   80486e0 <exit@plt>
	}
	printf("the result of func_b is %d\n", func_b());
 8048a4d:	e8 49 ff ff ff       	call   804899b <func_b>
 8048a52:	ba cb 8b 04 08       	mov    $0x8048bcb,%edx
 8048a57:	89 44 24 04          	mov    %eax,0x4(%esp)
 8048a5b:	89 14 24             	mov    %edx,(%esp)
 8048a5e:	e8 2d fc ff ff       	call   8048690 <printf@plt>
	return EXIT_SUCCESS;
 8048a63:	b8 00 00 00 00       	mov    $0x0,%eax
}
 8048a68:	c9                   	leave  
 8048a69:	c3                   	ret    
 8048a6a:	90                   	nop
 8048a6b:	90                   	nop
 8048a6c:	90                   	nop
 8048a6d:	90                   	nop
 8048a6e:	90                   	nop
 8048a6f:	90                   	nop

08048a70 <__libc_csu_init>:
 8048a70:	55                   	push   %ebp
 8048a71:	57                   	push   %edi
 8048a72:	56                   	push   %esi
 8048a73:	53                   	push   %ebx
 8048a74:	e8 69 00 00 00       	call   8048ae2 <__i686.get_pc_thunk.bx>
 8048a79:	81 c3 7b 15 00 00    	add    $0x157b,%ebx
 8048a7f:	83 ec 1c             	sub    $0x1c,%esp
 8048a82:	8b 6c 24 30          	mov    0x30(%esp),%ebp
 8048a86:	8d bb 20 ff ff ff    	lea    -0xe0(%ebx),%edi
 8048a8c:	e8 b7 fb ff ff       	call   8048648 <_init>
 8048a91:	8d 83 20 ff ff ff    	lea    -0xe0(%ebx),%eax
 8048a97:	29 c7                	sub    %eax,%edi
 8048a99:	c1 ff 02             	sar    $0x2,%edi
 8048a9c:	85 ff                	test   %edi,%edi
 8048a9e:	74 29                	je     8048ac9 <__libc_csu_init+0x59>
 8048aa0:	31 f6                	xor    %esi,%esi
 8048aa2:	8d b6 00 00 00 00    	lea    0x0(%esi),%esi
 8048aa8:	8b 44 24 38          	mov    0x38(%esp),%eax
 8048aac:	89 2c 24             	mov    %ebp,(%esp)
 8048aaf:	89 44 24 08          	mov    %eax,0x8(%esp)
 8048ab3:	8b 44 24 34          	mov    0x34(%esp),%eax
 8048ab7:	89 44 24 04          	mov    %eax,0x4(%esp)
 8048abb:	ff 94 b3 20 ff ff ff 	call   *-0xe0(%ebx,%esi,4)
 8048ac2:	83 c6 01             	add    $0x1,%esi
 8048ac5:	39 fe                	cmp    %edi,%esi
 8048ac7:	75 df                	jne    8048aa8 <__libc_csu_init+0x38>
 8048ac9:	83 c4 1c             	add    $0x1c,%esp
 8048acc:	5b                   	pop    %ebx
 8048acd:	5e                   	pop    %esi
 8048ace:	5f                   	pop    %edi
 8048acf:	5d                   	pop    %ebp
 8048ad0:	c3                   	ret    
 8048ad1:	eb 0d                	jmp    8048ae0 <__libc_csu_fini>
 8048ad3:	90                   	nop
 8048ad4:	90                   	nop
 8048ad5:	90                   	nop
 8048ad6:	90                   	nop
 8048ad7:	90                   	nop
 8048ad8:	90                   	nop
 8048ad9:	90                   	nop
 8048ada:	90                   	nop
 8048adb:	90                   	nop
 8048adc:	90                   	nop
 8048add:	90                   	nop
 8048ade:	90                   	nop
 8048adf:	90                   	nop

08048ae0 <__libc_csu_fini>:
 8048ae0:	f3 c3                	repz ret 

08048ae2 <__i686.get_pc_thunk.bx>:
 8048ae2:	8b 1c 24             	mov    (%esp),%ebx
 8048ae5:	c3                   	ret    
 8048ae6:	90                   	nop
 8048ae7:	90                   	nop
 8048ae8:	90                   	nop
 8048ae9:	90                   	nop
 8048aea:	90                   	nop
 8048aeb:	90                   	nop
 8048aec:	90                   	nop
 8048aed:	90                   	nop
 8048aee:	90                   	nop
 8048aef:	90                   	nop

08048af0 <__do_global_ctors_aux>:
 8048af0:	55                   	push   %ebp
 8048af1:	89 e5                	mov    %esp,%ebp
 8048af3:	53                   	push   %ebx
 8048af4:	83 ec 04             	sub    $0x4,%esp
 8048af7:	a1 14 9f 04 08       	mov    0x8049f14,%eax
 8048afc:	83 f8 ff             	cmp    $0xffffffff,%eax
 8048aff:	74 13                	je     8048b14 <__do_global_ctors_aux+0x24>
 8048b01:	bb 14 9f 04 08       	mov    $0x8049f14,%ebx
 8048b06:	66 90                	xchg   %ax,%ax
 8048b08:	83 eb 04             	sub    $0x4,%ebx
 8048b0b:	ff d0                	call   *%eax
 8048b0d:	8b 03                	mov    (%ebx),%eax
 8048b0f:	83 f8 ff             	cmp    $0xffffffff,%eax
 8048b12:	75 f4                	jne    8048b08 <__do_global_ctors_aux+0x18>
 8048b14:	83 c4 04             	add    $0x4,%esp
 8048b17:	5b                   	pop    %ebx
 8048b18:	5d                   	pop    %ebp
 8048b19:	c3                   	ret    
 8048b1a:	90                   	nop
 8048b1b:	90                   	nop

Disassembly of section .fini:

08048b1c <_fini>:
 8048b1c:	53                   	push   %ebx
 8048b1d:	83 ec 08             	sub    $0x8,%esp
 8048b20:	e8 00 00 00 00       	call   8048b25 <_fini+0x9>
 8048b25:	5b                   	pop    %ebx
 8048b26:	81 c3 cf 14 00 00    	add    $0x14cf,%ebx
 8048b2c:	e8 4f fc ff ff       	call   8048780 <__do_global_dtors_aux>
 8048b31:	83 c4 08             	add    $0x8,%esp
 8048b34:	5b                   	pop    %ebx
 8048b35:	c3                   	ret    
