
a.out:     file format elf32-i386


Disassembly of section .init:

080486e4 <_init>:
 80486e4:	53                   	push   %ebx
 80486e5:	83 ec 08             	sub    $0x8,%esp
 80486e8:	e8 00 00 00 00       	call   80486ed <_init+0x9>
 80486ed:	5b                   	pop    %ebx
 80486ee:	81 c3 07 19 00 00    	add    $0x1907,%ebx
 80486f4:	8b 83 fc ff ff ff    	mov    -0x4(%ebx),%eax
 80486fa:	85 c0                	test   %eax,%eax
 80486fc:	74 05                	je     8048703 <_init+0x1f>
 80486fe:	e8 3d 00 00 00       	call   8048740 <__gmon_start__@plt>
 8048703:	e8 98 01 00 00       	call   80488a0 <frame_dummy>
 8048708:	e8 03 06 00 00       	call   8048d10 <__do_global_ctors_aux>
 804870d:	83 c4 08             	add    $0x8,%esp
 8048710:	5b                   	pop    %ebx
 8048711:	c3                   	ret    

Disassembly of section .plt:

08048720 <__cxa_demangle@plt-0x10>:
 8048720:	ff 35 f8 9f 04 08    	pushl  0x8049ff8
 8048726:	ff 25 fc 9f 04 08    	jmp    *0x8049ffc
 804872c:	00 00                	add    %al,(%eax)
	...

08048730 <__cxa_demangle@plt>:
 8048730:	ff 25 00 a0 04 08    	jmp    *0x804a000
 8048736:	68 00 00 00 00       	push   $0x0
 804873b:	e9 e0 ff ff ff       	jmp    8048720 <_init+0x3c>

08048740 <__gmon_start__@plt>:
 8048740:	ff 25 04 a0 04 08    	jmp    *0x804a004
 8048746:	68 08 00 00 00       	push   $0x8
 804874b:	e9 d0 ff ff ff       	jmp    8048720 <_init+0x3c>

08048750 <memset@plt>:
 8048750:	ff 25 08 a0 04 08    	jmp    *0x804a008
 8048756:	68 10 00 00 00       	push   $0x10
 804875b:	e9 c0 ff ff ff       	jmp    8048720 <_init+0x3c>

08048760 <__libc_start_main@plt>:
 8048760:	ff 25 0c a0 04 08    	jmp    *0x804a00c
 8048766:	68 18 00 00 00       	push   $0x18
 804876b:	e9 b0 ff ff ff       	jmp    8048720 <_init+0x3c>

08048770 <perror@plt>:
 8048770:	ff 25 10 a0 04 08    	jmp    *0x804a010
 8048776:	68 20 00 00 00       	push   $0x20
 804877b:	e9 a0 ff ff ff       	jmp    8048720 <_init+0x3c>

08048780 <free@plt>:
 8048780:	ff 25 14 a0 04 08    	jmp    *0x804a014
 8048786:	68 28 00 00 00       	push   $0x28
 804878b:	e9 90 ff ff ff       	jmp    8048720 <_init+0x3c>

08048790 <sigaction@plt>:
 8048790:	ff 25 18 a0 04 08    	jmp    *0x804a018
 8048796:	68 30 00 00 00       	push   $0x30
 804879b:	e9 80 ff ff ff       	jmp    8048720 <_init+0x3c>

080487a0 <memcpy@plt>:
 80487a0:	ff 25 1c a0 04 08    	jmp    *0x804a01c
 80487a6:	68 38 00 00 00       	push   $0x38
 80487ab:	e9 70 ff ff ff       	jmp    8048720 <_init+0x3c>

080487b0 <fwrite@plt>:
 80487b0:	ff 25 20 a0 04 08    	jmp    *0x804a020
 80487b6:	68 40 00 00 00       	push   $0x40
 80487bb:	e9 60 ff ff ff       	jmp    8048720 <_init+0x3c>

080487c0 <fprintf@plt>:
 80487c0:	ff 25 24 a0 04 08    	jmp    *0x804a024
 80487c6:	68 48 00 00 00       	push   $0x48
 80487cb:	e9 50 ff ff ff       	jmp    8048720 <_init+0x3c>

080487d0 <__gxx_personality_v0@plt>:
 80487d0:	ff 25 28 a0 04 08    	jmp    *0x804a028
 80487d6:	68 50 00 00 00       	push   $0x50
 80487db:	e9 40 ff ff ff       	jmp    8048720 <_init+0x3c>

080487e0 <strcmp@plt>:
 80487e0:	ff 25 2c a0 04 08    	jmp    *0x804a02c
 80487e6:	68 58 00 00 00       	push   $0x58
 80487eb:	e9 30 ff ff ff       	jmp    8048720 <_init+0x3c>

080487f0 <exit@plt>:
 80487f0:	ff 25 30 a0 04 08    	jmp    *0x804a030
 80487f6:	68 60 00 00 00       	push   $0x60
 80487fb:	e9 20 ff ff ff       	jmp    8048720 <_init+0x3c>

08048800 <dladdr@plt>:
 8048800:	ff 25 34 a0 04 08    	jmp    *0x804a034
 8048806:	68 68 00 00 00       	push   $0x68
 804880b:	e9 10 ff ff ff       	jmp    8048720 <_init+0x3c>

Disassembly of section .text:

08048810 <_start>:
 8048810:	31 ed                	xor    %ebp,%ebp
 8048812:	5e                   	pop    %esi
 8048813:	89 e1                	mov    %esp,%ecx
 8048815:	83 e4 f0             	and    $0xfffffff0,%esp
 8048818:	50                   	push   %eax
 8048819:	54                   	push   %esp
 804881a:	52                   	push   %edx
 804881b:	68 00 8d 04 08       	push   $0x8048d00
 8048820:	68 90 8c 04 08       	push   $0x8048c90
 8048825:	51                   	push   %ecx
 8048826:	56                   	push   %esi
 8048827:	68 f3 88 04 08       	push   $0x80488f3
 804882c:	e8 2f ff ff ff       	call   8048760 <__libc_start_main@plt>
 8048831:	f4                   	hlt    
 8048832:	90                   	nop
 8048833:	90                   	nop
 8048834:	90                   	nop
 8048835:	90                   	nop
 8048836:	90                   	nop
 8048837:	90                   	nop
 8048838:	90                   	nop
 8048839:	90                   	nop
 804883a:	90                   	nop
 804883b:	90                   	nop
 804883c:	90                   	nop
 804883d:	90                   	nop
 804883e:	90                   	nop
 804883f:	90                   	nop

08048840 <__do_global_dtors_aux>:
 8048840:	55                   	push   %ebp
 8048841:	89 e5                	mov    %esp,%ebp
 8048843:	53                   	push   %ebx
 8048844:	83 ec 04             	sub    $0x4,%esp
 8048847:	80 3d 50 a0 04 08 00 	cmpb   $0x0,0x804a050
 804884e:	75 3f                	jne    804888f <__do_global_dtors_aux+0x4f>
 8048850:	a1 54 a0 04 08       	mov    0x804a054,%eax
 8048855:	bb 00 9f 04 08       	mov    $0x8049f00,%ebx
 804885a:	81 eb fc 9e 04 08    	sub    $0x8049efc,%ebx
 8048860:	c1 fb 02             	sar    $0x2,%ebx
 8048863:	83 eb 01             	sub    $0x1,%ebx
 8048866:	39 d8                	cmp    %ebx,%eax
 8048868:	73 1e                	jae    8048888 <__do_global_dtors_aux+0x48>
 804886a:	8d b6 00 00 00 00    	lea    0x0(%esi),%esi
 8048870:	83 c0 01             	add    $0x1,%eax
 8048873:	a3 54 a0 04 08       	mov    %eax,0x804a054
 8048878:	ff 14 85 fc 9e 04 08 	call   *0x8049efc(,%eax,4)
 804887f:	a1 54 a0 04 08       	mov    0x804a054,%eax
 8048884:	39 d8                	cmp    %ebx,%eax
 8048886:	72 e8                	jb     8048870 <__do_global_dtors_aux+0x30>
 8048888:	c6 05 50 a0 04 08 01 	movb   $0x1,0x804a050
 804888f:	83 c4 04             	add    $0x4,%esp
 8048892:	5b                   	pop    %ebx
 8048893:	5d                   	pop    %ebp
 8048894:	c3                   	ret    
 8048895:	8d 74 26 00          	lea    0x0(%esi,%eiz,1),%esi
 8048899:	8d bc 27 00 00 00 00 	lea    0x0(%edi,%eiz,1),%edi

080488a0 <frame_dummy>:
 80488a0:	55                   	push   %ebp
 80488a1:	89 e5                	mov    %esp,%ebp
 80488a3:	83 ec 18             	sub    $0x18,%esp
 80488a6:	a1 04 9f 04 08       	mov    0x8049f04,%eax
 80488ab:	85 c0                	test   %eax,%eax
 80488ad:	74 12                	je     80488c1 <frame_dummy+0x21>
 80488af:	b8 00 00 00 00       	mov    $0x0,%eax
 80488b4:	85 c0                	test   %eax,%eax
 80488b6:	74 09                	je     80488c1 <frame_dummy+0x21>
 80488b8:	c7 04 24 04 9f 04 08 	movl   $0x8049f04,(%esp)
 80488bf:	ff d0                	call   *%eax
 80488c1:	c9                   	leave  
 80488c2:	c3                   	ret    
 80488c3:	90                   	nop

080488c4 <_Z3diev>:
#include <stdlib.h>
#include "sigsegv.h"
#include <string.h>

int die()
{
 80488c4:	55                   	push   %ebp
 80488c5:	89 e5                	mov    %esp,%ebp
 80488c7:	83 ec 28             	sub    $0x28,%esp
	char *err = NULL;
 80488ca:	c7 45 f4 00 00 00 00 	movl   $0x0,-0xc(%ebp)
	strcpy(err, "astrol");
 80488d1:	c7 44 24 08 07 00 00 	movl   $0x7,0x8(%esp)
 80488d8:	00 
 80488d9:	c7 44 24 04 60 8d 04 	movl   $0x8048d60,0x4(%esp)
 80488e0:	08 
 80488e1:	8b 45 f4             	mov    -0xc(%ebp),%eax
 80488e4:	89 04 24             	mov    %eax,(%esp)
 80488e7:	e8 b4 fe ff ff       	call   80487a0 <memcpy@plt>
	return 0;
 80488ec:	b8 00 00 00 00       	mov    $0x0,%eax
}
 80488f1:	c9                   	leave  
 80488f2:	c3                   	ret    

080488f3 <main>:

int main(int argc, const char *argv[])
{
 80488f3:	55                   	push   %ebp
 80488f4:	89 e5                	mov    %esp,%ebp
 80488f6:	83 e4 f0             	and    $0xfffffff0,%esp
 80488f9:	83 ec 20             	sub    $0x20,%esp
	TRACE_MSG("fuck");
 80488fc:	a1 4c a0 04 08       	mov    0x804a04c,%eax
 8048901:	c7 44 24 14 67 8d 04 	movl   $0x8048d67,0x14(%esp)
 8048908:	08 
 8048909:	c7 44 24 10 20 00 00 	movl   $0x20,0x10(%esp)
 8048910:	00 
 8048911:	c7 44 24 0c 6c 8d 04 	movl   $0x8048d6c,0xc(%esp)
 8048918:	08 
 8048919:	c7 44 24 08 88 8d 04 	movl   $0x8048d88,0x8(%esp)
 8048920:	08 
 8048921:	c7 44 24 04 73 8d 04 	movl   $0x8048d73,0x4(%esp)
 8048928:	08 
 8048929:	89 04 24             	mov    %eax,(%esp)
 804892c:	e8 8f fe ff ff       	call   80487c0 <fprintf@plt>
	setup_sigsegv();
 8048931:	e8 e0 02 00 00       	call   8048c16 <_Z13setup_sigsegvv>
	return die();
 8048936:	e8 89 ff ff ff       	call   80488c4 <_Z3diev>
}
 804893b:	c9                   	leave  
 804893c:	c3                   	ret    
 804893d:	90                   	nop
 804893e:	90                   	nop
 804893f:	90                   	nop

08048940 <_ZL11signal_segviP7siginfoPv>:
#endif

//#define sigsegv_outp(x, ...) fprintf(stderr, x"\n", ##__VA_ARGS__)

static void signal_segv(int signo, siginfo_t *info, void *context)
{
 8048940:	55                   	push   %ebp
 8048941:	89 e5                	mov    %esp,%ebp
 8048943:	57                   	push   %edi
 8048944:	53                   	push   %ebx
 8048945:	81 ec d0 00 00 00    	sub    $0xd0,%esp
	// SEGV_MAPERR -- address not mapped into object
	// SEGV_ACCERR -- invalid permissions for mapped object
	static const char *si_codes[] = {"", "SEGV_MAPERR", "SEGV_ACCERR"};
	ucontext_t *ucontext = (ucontext_t *)context;
 804894b:	8b 45 10             	mov    0x10(%ebp),%eax
 804894e:	89 45 f4             	mov    %eax,-0xc(%ebp)
	size_t i = 0;
 8048951:	c7 45 f0 00 00 00 00 	movl   $0x0,-0x10(%ebp)
	void *buffer[30] = {0};
 8048958:	8d 9d 48 ff ff ff    	lea    -0xb8(%ebp),%ebx
 804895e:	b8 00 00 00 00       	mov    $0x0,%eax
 8048963:	ba 1e 00 00 00       	mov    $0x1e,%edx
 8048968:	89 df                	mov    %ebx,%edi
 804896a:	89 d1                	mov    %edx,%ecx
 804896c:	f3 ab                	rep stos %eax,%es:(%edi)
	size_t size = 0;
 804896e:	c7 45 ec 00 00 00 00 	movl   $0x0,-0x14(%ebp)
	char **strings = NULL;
 8048975:	c7 45 e8 00 00 00 00 	movl   $0x0,-0x18(%ebp)
	
#if defined (SIGSEGV_STACK_X86) || defined (SIGSEGV_STACK_IA64)
	int f = 0;
 804897c:	c7 45 e4 00 00 00 00 	movl   $0x0,-0x1c(%ebp)
	Dl_info dlinfo;
	void **bp = 0;
 8048983:	c7 45 e0 00 00 00 00 	movl   $0x0,-0x20(%ebp)
	void *ip = 0;
 804898a:	c7 45 dc 00 00 00 00 	movl   $0x0,-0x24(%ebp)
	size_t size = 0;
	char **strings = NULL;
	int fd;
#endif
	
	sigsegv_outp("Segmentation Fault!");
 8048991:	a1 4c a0 04 08       	mov    0x804a04c,%eax
 8048996:	89 44 24 0c          	mov    %eax,0xc(%esp)
 804899a:	c7 44 24 08 14 00 00 	movl   $0x14,0x8(%esp)
 80489a1:	00 
 80489a2:	c7 44 24 04 01 00 00 	movl   $0x1,0x4(%esp)
 80489a9:	00 
 80489aa:	c7 04 24 8d 8d 04 08 	movl   $0x8048d8d,(%esp)
 80489b1:	e8 fa fd ff ff       	call   80487b0 <fwrite@plt>
	sigsegv_outp("info->si_signo = %d", signo);
 80489b6:	a1 4c a0 04 08       	mov    0x804a04c,%eax
 80489bb:	8b 55 08             	mov    0x8(%ebp),%edx
 80489be:	89 54 24 08          	mov    %edx,0x8(%esp)
 80489c2:	c7 44 24 04 a2 8d 04 	movl   $0x8048da2,0x4(%esp)
 80489c9:	08 
 80489ca:	89 04 24             	mov    %eax,(%esp)
 80489cd:	e8 ee fd ff ff       	call   80487c0 <fprintf@plt>
	sigsegv_outp("info->si_signo = %d", info->si_signo);
 80489d2:	8b 45 0c             	mov    0xc(%ebp),%eax
 80489d5:	8b 10                	mov    (%eax),%edx
 80489d7:	a1 4c a0 04 08       	mov    0x804a04c,%eax
 80489dc:	89 54 24 08          	mov    %edx,0x8(%esp)
 80489e0:	c7 44 24 04 a2 8d 04 	movl   $0x8048da2,0x4(%esp)
 80489e7:	08 
 80489e8:	89 04 24             	mov    %eax,(%esp)
 80489eb:	e8 d0 fd ff ff       	call   80487c0 <fprintf@plt>
	sigsegv_outp("info->si_errno = %d", info->si_errno);
 80489f0:	8b 45 0c             	mov    0xc(%ebp),%eax
 80489f3:	8b 50 04             	mov    0x4(%eax),%edx
 80489f6:	a1 4c a0 04 08       	mov    0x804a04c,%eax
 80489fb:	89 54 24 08          	mov    %edx,0x8(%esp)
 80489ff:	c7 44 24 04 b7 8d 04 	movl   $0x8048db7,0x4(%esp)
 8048a06:	08 
 8048a07:	89 04 24             	mov    %eax,(%esp)
 8048a0a:	e8 b1 fd ff ff       	call   80487c0 <fprintf@plt>
	sigsegv_outp("info->si_code  = %d(%s)", info->si_code, si_codes[info->si_code]);
 8048a0f:	8b 45 0c             	mov    0xc(%ebp),%eax
 8048a12:	8b 40 08             	mov    0x8(%eax),%eax
 8048a15:	8b 0c 85 40 a0 04 08 	mov    0x804a040(,%eax,4),%ecx
 8048a1c:	8b 45 0c             	mov    0xc(%ebp),%eax
 8048a1f:	8b 50 08             	mov    0x8(%eax),%edx
 8048a22:	a1 4c a0 04 08       	mov    0x804a04c,%eax
 8048a27:	89 4c 24 0c          	mov    %ecx,0xc(%esp)
 8048a2b:	89 54 24 08          	mov    %edx,0x8(%esp)
 8048a2f:	c7 44 24 04 cc 8d 04 	movl   $0x8048dcc,0x4(%esp)
 8048a36:	08 
 8048a37:	89 04 24             	mov    %eax,(%esp)
 8048a3a:	e8 81 fd ff ff       	call   80487c0 <fprintf@plt>
	sigsegv_outp("info->si_addr  = %p", info->si_addr);
 8048a3f:	8b 45 0c             	mov    0xc(%ebp),%eax
 8048a42:	8b 50 0c             	mov    0xc(%eax),%edx
 8048a45:	a1 4c a0 04 08       	mov    0x804a04c,%eax
 8048a4a:	89 54 24 08          	mov    %edx,0x8(%esp)
 8048a4e:	c7 44 24 04 e5 8d 04 	movl   $0x8048de5,0x4(%esp)
 8048a55:	08 
 8048a56:	89 04 24             	mov    %eax,(%esp)
 8048a59:	e8 62 fd ff ff       	call   80487c0 <fprintf@plt>
	for (i = 0; i < NGREG; i++)	// NGREG -- number of general registers
 8048a5e:	c7 45 f0 00 00 00 00 	movl   $0x0,-0x10(%ebp)
 8048a65:	eb 31                	jmp    8048a98 <_ZL11signal_segviP7siginfoPv+0x158>
		sigsegv_outp("reg[%02d]    = 0x"REGFORMAT, i, ucontext->uc_mcontext.gregs[i]);
 8048a67:	8b 55 f0             	mov    -0x10(%ebp),%edx
 8048a6a:	8b 45 f4             	mov    -0xc(%ebp),%eax
 8048a6d:	83 c2 04             	add    $0x4,%edx
 8048a70:	8b 54 90 04          	mov    0x4(%eax,%edx,4),%edx
 8048a74:	a1 4c a0 04 08       	mov    0x804a04c,%eax
 8048a79:	89 54 24 0c          	mov    %edx,0xc(%esp)
 8048a7d:	8b 55 f0             	mov    -0x10(%ebp),%edx
 8048a80:	89 54 24 08          	mov    %edx,0x8(%esp)
 8048a84:	c7 44 24 04 fa 8d 04 	movl   $0x8048dfa,0x4(%esp)
 8048a8b:	08 
 8048a8c:	89 04 24             	mov    %eax,(%esp)
 8048a8f:	e8 2c fd ff ff       	call   80487c0 <fprintf@plt>
	sigsegv_outp("info->si_signo = %d", signo);
	sigsegv_outp("info->si_signo = %d", info->si_signo);
	sigsegv_outp("info->si_errno = %d", info->si_errno);
	sigsegv_outp("info->si_code  = %d(%s)", info->si_code, si_codes[info->si_code]);
	sigsegv_outp("info->si_addr  = %p", info->si_addr);
	for (i = 0; i < NGREG; i++)	// NGREG -- number of general registers
 8048a94:	83 45 f0 01          	addl   $0x1,-0x10(%ebp)
 8048a98:	83 7d f0 12          	cmpl   $0x12,-0x10(%ebp)
 8048a9c:	0f 96 c0             	setbe  %al
 8048a9f:	84 c0                	test   %al,%al
 8048aa1:	75 c4                	jne    8048a67 <_ZL11signal_segviP7siginfoPv+0x127>
		sigsegv_outp("reg[%02d]    = 0x"REGFORMAT, i, ucontext->uc_mcontext.gregs[i]);
	
#if defined (SIGSEGV_STACK_X86) || defined (SIGSEGV_STACK_IA64)
	#if   defined (SIGSEGV_STACK_X86)	// 32
		ip = (void *)ucontext->uc_mcontext.gregs[REG_EIP];
 8048aa3:	8b 45 f4             	mov    -0xc(%ebp),%eax
 8048aa6:	8b 40 4c             	mov    0x4c(%eax),%eax
 8048aa9:	89 45 dc             	mov    %eax,-0x24(%ebp)
		bp = (void **)ucontext->uc_mcontext.gregs[REG_EBP];		
 8048aac:	8b 45 f4             	mov    -0xc(%ebp),%eax
 8048aaf:	8b 40 2c             	mov    0x2c(%eax),%eax
 8048ab2:	89 45 e0             	mov    %eax,-0x20(%ebp)
	#elif defined (SIGSEGV_STACK_IA64)	// 64
		ip = (void *)ucontext->uc_mcontext.gregs[REG_RIP];
		bp = (void **)ucontext->uc_mcontext.gregs[REG_RBP];
	#endif		
	
	sigsegv_outp("Stack trace:\n");
 8048ab5:	a1 4c a0 04 08       	mov    0x804a04c,%eax
 8048aba:	89 44 24 0c          	mov    %eax,0xc(%esp)
 8048abe:	c7 44 24 08 0e 00 00 	movl   $0xe,0x8(%esp)
 8048ac5:	00 
 8048ac6:	c7 44 24 04 01 00 00 	movl   $0x1,0x4(%esp)
 8048acd:	00 
 8048ace:	c7 04 24 11 8e 04 08 	movl   $0x8048e11,(%esp)
 8048ad5:	e8 d6 fc ff ff       	call   80487b0 <fwrite@plt>
	while (ip && bp)
 8048ada:	e9 e0 00 00 00       	jmp    8048bbf <_ZL11signal_segviP7siginfoPv+0x27f>
	{
//		if (dladdr(ip, &dlinfo) != NULL)
		if (dladdr(ip, &dlinfo) == 0)
 8048adf:	8d 45 c0             	lea    -0x40(%ebp),%eax
 8048ae2:	89 44 24 04          	mov    %eax,0x4(%esp)
 8048ae6:	8b 45 dc             	mov    -0x24(%ebp),%eax
 8048ae9:	89 04 24             	mov    %eax,(%esp)
 8048aec:	e8 0f fd ff ff       	call   8048800 <dladdr@plt>
 8048af1:	85 c0                	test   %eax,%eax
 8048af3:	0f 94 c0             	sete   %al
 8048af6:	84 c0                	test   %al,%al
 8048af8:	0f 85 e3 00 00 00    	jne    8048be1 <_ZL11signal_segviP7siginfoPv+0x2a1>
			break;
		const char *symname = dlinfo.dli_sname; 	// dli_sname -- name of nearest symbol
 8048afe:	8b 45 c8             	mov    -0x38(%ebp),%eax
 8048b01:	89 45 d8             	mov    %eax,-0x28(%ebp)
#ifndef NO_CPP_DEMANGLE
		int status;
		char *temp = abi::__cxa_demangle(symname, NULL, 0, &status);
 8048b04:	8d 45 d4             	lea    -0x2c(%ebp),%eax
 8048b07:	89 44 24 0c          	mov    %eax,0xc(%esp)
 8048b0b:	c7 44 24 08 00 00 00 	movl   $0x0,0x8(%esp)
 8048b12:	00 
 8048b13:	c7 44 24 04 00 00 00 	movl   $0x0,0x4(%esp)
 8048b1a:	00 
 8048b1b:	8b 45 d8             	mov    -0x28(%ebp),%eax
 8048b1e:	89 04 24             	mov    %eax,(%esp)
 8048b21:	e8 0a fc ff ff       	call   8048730 <__cxa_demangle@plt>
 8048b26:	89 45 d0             	mov    %eax,-0x30(%ebp)
		if (status == 0 && temp != NULL)	
 8048b29:	8b 45 d4             	mov    -0x2c(%ebp),%eax
 8048b2c:	85 c0                	test   %eax,%eax
 8048b2e:	75 0c                	jne    8048b3c <_ZL11signal_segviP7siginfoPv+0x1fc>
 8048b30:	83 7d d0 00          	cmpl   $0x0,-0x30(%ebp)
 8048b34:	74 06                	je     8048b3c <_ZL11signal_segviP7siginfoPv+0x1fc>
			symname = temp;
 8048b36:	8b 45 d0             	mov    -0x30(%ebp),%eax
 8048b39:	89 45 d8             	mov    %eax,-0x28(%ebp)
#endif
		sigsegv_outp("%2d: %p <%s + %lu> (%s)", ++f, ip, symname, 
					(unsigned long)ip - (unsigned long)dlinfo.dli_saddr,
							dlinfo.dli_fname);
 8048b3c:	8b 55 c0             	mov    -0x40(%ebp),%edx
 8048b3f:	8b 4d dc             	mov    -0x24(%ebp),%ecx
 8048b42:	8b 45 cc             	mov    -0x34(%ebp),%eax
 8048b45:	29 c1                	sub    %eax,%ecx
 8048b47:	83 45 e4 01          	addl   $0x1,-0x1c(%ebp)
 8048b4b:	a1 4c a0 04 08       	mov    0x804a04c,%eax
 8048b50:	89 54 24 18          	mov    %edx,0x18(%esp)
 8048b54:	89 4c 24 14          	mov    %ecx,0x14(%esp)
 8048b58:	8b 55 d8             	mov    -0x28(%ebp),%edx
 8048b5b:	89 54 24 10          	mov    %edx,0x10(%esp)
 8048b5f:	8b 55 dc             	mov    -0x24(%ebp),%edx
 8048b62:	89 54 24 0c          	mov    %edx,0xc(%esp)
 8048b66:	8b 55 e4             	mov    -0x1c(%ebp),%edx
 8048b69:	89 54 24 08          	mov    %edx,0x8(%esp)
 8048b6d:	c7 44 24 04 20 8e 04 	movl   $0x8048e20,0x4(%esp)
 8048b74:	08 
 8048b75:	89 04 24             	mov    %eax,(%esp)
 8048b78:	e8 43 fc ff ff       	call   80487c0 <fprintf@plt>
#ifndef NO_CPP_DEMANGLE
		if (temp != NULL)
 8048b7d:	83 7d d0 00          	cmpl   $0x0,-0x30(%ebp)
 8048b81:	74 0b                	je     8048b8e <_ZL11signal_segviP7siginfoPv+0x24e>
			free(temp);
 8048b83:	8b 45 d0             	mov    -0x30(%ebp),%eax
 8048b86:	89 04 24             	mov    %eax,(%esp)
 8048b89:	e8 f2 fb ff ff       	call   8048780 <free@plt>
#endif
		if (dlinfo.dli_sname != NULL && strcmp(dlinfo.dli_sname, "main") == 0)
 8048b8e:	8b 45 c8             	mov    -0x38(%ebp),%eax
 8048b91:	85 c0                	test   %eax,%eax
 8048b93:	74 17                	je     8048bac <_ZL11signal_segviP7siginfoPv+0x26c>
 8048b95:	8b 45 c8             	mov    -0x38(%ebp),%eax
 8048b98:	c7 44 24 04 39 8e 04 	movl   $0x8048e39,0x4(%esp)
 8048b9f:	08 
 8048ba0:	89 04 24             	mov    %eax,(%esp)
 8048ba3:	e8 38 fc ff ff       	call   80487e0 <strcmp@plt>
 8048ba8:	85 c0                	test   %eax,%eax
 8048baa:	74 38                	je     8048be4 <_ZL11signal_segviP7siginfoPv+0x2a4>
			break;
		ip = bp[1];
 8048bac:	8b 45 e0             	mov    -0x20(%ebp),%eax
 8048baf:	83 c0 04             	add    $0x4,%eax
 8048bb2:	8b 00                	mov    (%eax),%eax
 8048bb4:	89 45 dc             	mov    %eax,-0x24(%ebp)
		bp = (void **)bp[0];
 8048bb7:	8b 45 e0             	mov    -0x20(%ebp),%eax
 8048bba:	8b 00                	mov    (%eax),%eax
 8048bbc:	89 45 e0             	mov    %eax,-0x20(%ebp)
		ip = (void *)ucontext->uc_mcontext.gregs[REG_RIP];
		bp = (void **)ucontext->uc_mcontext.gregs[REG_RBP];
	#endif		
	
	sigsegv_outp("Stack trace:\n");
	while (ip && bp)
 8048bbf:	83 7d dc 00          	cmpl   $0x0,-0x24(%ebp)
 8048bc3:	74 0d                	je     8048bd2 <_ZL11signal_segviP7siginfoPv+0x292>
 8048bc5:	83 7d e0 00          	cmpl   $0x0,-0x20(%ebp)
 8048bc9:	74 07                	je     8048bd2 <_ZL11signal_segviP7siginfoPv+0x292>
 8048bcb:	b8 01 00 00 00       	mov    $0x1,%eax
 8048bd0:	eb 05                	jmp    8048bd7 <_ZL11signal_segviP7siginfoPv+0x297>
 8048bd2:	b8 00 00 00 00       	mov    $0x0,%eax
 8048bd7:	84 c0                	test   %al,%al
 8048bd9:	0f 85 00 ff ff ff    	jne    8048adf <_ZL11signal_segviP7siginfoPv+0x19f>
 8048bdf:	eb 04                	jmp    8048be5 <_ZL11signal_segviP7siginfoPv+0x2a5>
	{
//		if (dladdr(ip, &dlinfo) != NULL)
		if (dladdr(ip, &dlinfo) == 0)
			break;
 8048be1:	90                   	nop
 8048be2:	eb 01                	jmp    8048be5 <_ZL11signal_segviP7siginfoPv+0x2a5>
#ifndef NO_CPP_DEMANGLE
		if (temp != NULL)
			free(temp);
#endif
		if (dlinfo.dli_sname != NULL && strcmp(dlinfo.dli_sname, "main") == 0)
			break;
 8048be4:	90                   	nop
		perror("open.");
		exit(EXIT_FAILURE);
	}
	backtrace_symbols_fd(buffer, size, fd);
#endif
	sigsegv_outp("End of stack trace\n");
 8048be5:	a1 4c a0 04 08       	mov    0x804a04c,%eax
 8048bea:	89 44 24 0c          	mov    %eax,0xc(%esp)
 8048bee:	c7 44 24 08 14 00 00 	movl   $0x14,0x8(%esp)
 8048bf5:	00 
 8048bf6:	c7 44 24 04 01 00 00 	movl   $0x1,0x4(%esp)
 8048bfd:	00 
 8048bfe:	c7 04 24 3e 8e 04 08 	movl   $0x8048e3e,(%esp)
 8048c05:	e8 a6 fb ff ff       	call   80487b0 <fwrite@plt>
	exit(0);
 8048c0a:	c7 04 24 00 00 00 00 	movl   $0x0,(%esp)
 8048c11:	e8 da fb ff ff       	call   80487f0 <exit@plt>

08048c16 <_Z13setup_sigsegvv>:
}

int setup_sigsegv()
{
 8048c16:	55                   	push   %ebp
 8048c17:	89 e5                	mov    %esp,%ebp
 8048c19:	81 ec a8 00 00 00    	sub    $0xa8,%esp
	struct sigaction action;
	memset(&action, 0, sizeof(action));
 8048c1f:	c7 44 24 08 8c 00 00 	movl   $0x8c,0x8(%esp)
 8048c26:	00 
 8048c27:	c7 44 24 04 00 00 00 	movl   $0x0,0x4(%esp)
 8048c2e:	00 
 8048c2f:	8d 85 6c ff ff ff    	lea    -0x94(%ebp),%eax
 8048c35:	89 04 24             	mov    %eax,(%esp)
 8048c38:	e8 13 fb ff ff       	call   8048750 <memset@plt>
	action.sa_sigaction = signal_segv;
 8048c3d:	c7 85 6c ff ff ff 40 	movl   $0x8048940,-0x94(%ebp)
 8048c44:	89 04 08 
	action.sa_flags = SA_SIGINFO;
 8048c47:	c7 45 f0 04 00 00 00 	movl   $0x4,-0x10(%ebp)
	if (sigaction(SIGSEGV, &action, NULL) < 0)
 8048c4e:	c7 44 24 08 00 00 00 	movl   $0x0,0x8(%esp)
 8048c55:	00 
 8048c56:	8d 85 6c ff ff ff    	lea    -0x94(%ebp),%eax
 8048c5c:	89 44 24 04          	mov    %eax,0x4(%esp)
 8048c60:	c7 04 24 0b 00 00 00 	movl   $0xb,(%esp)
 8048c67:	e8 24 fb ff ff       	call   8048790 <sigaction@plt>
 8048c6c:	c1 e8 1f             	shr    $0x1f,%eax
 8048c6f:	84 c0                	test   %al,%al
 8048c71:	74 13                	je     8048c86 <_Z13setup_sigsegvv+0x70>
	{
		perror("sigaction");
 8048c73:	c7 04 24 53 8e 04 08 	movl   $0x8048e53,(%esp)
 8048c7a:	e8 f1 fa ff ff       	call   8048770 <perror@plt>
		return 0;
 8048c7f:	b8 00 00 00 00       	mov    $0x0,%eax
 8048c84:	eb 05                	jmp    8048c8b <_Z13setup_sigsegvv+0x75>
	}
	return 0;
 8048c86:	b8 00 00 00 00       	mov    $0x0,%eax
}
 8048c8b:	c9                   	leave  
 8048c8c:	c3                   	ret    
 8048c8d:	90                   	nop
 8048c8e:	90                   	nop
 8048c8f:	90                   	nop

08048c90 <__libc_csu_init>:
 8048c90:	55                   	push   %ebp
 8048c91:	57                   	push   %edi
 8048c92:	56                   	push   %esi
 8048c93:	53                   	push   %ebx
 8048c94:	e8 69 00 00 00       	call   8048d02 <__i686.get_pc_thunk.bx>
 8048c99:	81 c3 5b 13 00 00    	add    $0x135b,%ebx
 8048c9f:	83 ec 1c             	sub    $0x1c,%esp
 8048ca2:	8b 6c 24 30          	mov    0x30(%esp),%ebp
 8048ca6:	8d bb 00 ff ff ff    	lea    -0x100(%ebx),%edi
 8048cac:	e8 33 fa ff ff       	call   80486e4 <_init>
 8048cb1:	8d 83 00 ff ff ff    	lea    -0x100(%ebx),%eax
 8048cb7:	29 c7                	sub    %eax,%edi
 8048cb9:	c1 ff 02             	sar    $0x2,%edi
 8048cbc:	85 ff                	test   %edi,%edi
 8048cbe:	74 29                	je     8048ce9 <__libc_csu_init+0x59>
 8048cc0:	31 f6                	xor    %esi,%esi
 8048cc2:	8d b6 00 00 00 00    	lea    0x0(%esi),%esi
 8048cc8:	8b 44 24 38          	mov    0x38(%esp),%eax
 8048ccc:	89 2c 24             	mov    %ebp,(%esp)
 8048ccf:	89 44 24 08          	mov    %eax,0x8(%esp)
 8048cd3:	8b 44 24 34          	mov    0x34(%esp),%eax
 8048cd7:	89 44 24 04          	mov    %eax,0x4(%esp)
 8048cdb:	ff 94 b3 00 ff ff ff 	call   *-0x100(%ebx,%esi,4)
 8048ce2:	83 c6 01             	add    $0x1,%esi
 8048ce5:	39 fe                	cmp    %edi,%esi
 8048ce7:	75 df                	jne    8048cc8 <__libc_csu_init+0x38>
 8048ce9:	83 c4 1c             	add    $0x1c,%esp
 8048cec:	5b                   	pop    %ebx
 8048ced:	5e                   	pop    %esi
 8048cee:	5f                   	pop    %edi
 8048cef:	5d                   	pop    %ebp
 8048cf0:	c3                   	ret    
 8048cf1:	eb 0d                	jmp    8048d00 <__libc_csu_fini>
 8048cf3:	90                   	nop
 8048cf4:	90                   	nop
 8048cf5:	90                   	nop
 8048cf6:	90                   	nop
 8048cf7:	90                   	nop
 8048cf8:	90                   	nop
 8048cf9:	90                   	nop
 8048cfa:	90                   	nop
 8048cfb:	90                   	nop
 8048cfc:	90                   	nop
 8048cfd:	90                   	nop
 8048cfe:	90                   	nop
 8048cff:	90                   	nop

08048d00 <__libc_csu_fini>:
 8048d00:	f3 c3                	repz ret 

08048d02 <__i686.get_pc_thunk.bx>:
 8048d02:	8b 1c 24             	mov    (%esp),%ebx
 8048d05:	c3                   	ret    
 8048d06:	90                   	nop
 8048d07:	90                   	nop
 8048d08:	90                   	nop
 8048d09:	90                   	nop
 8048d0a:	90                   	nop
 8048d0b:	90                   	nop
 8048d0c:	90                   	nop
 8048d0d:	90                   	nop
 8048d0e:	90                   	nop
 8048d0f:	90                   	nop

08048d10 <__do_global_ctors_aux>:
 8048d10:	55                   	push   %ebp
 8048d11:	89 e5                	mov    %esp,%ebp
 8048d13:	53                   	push   %ebx
 8048d14:	83 ec 04             	sub    $0x4,%esp
 8048d17:	a1 f4 9e 04 08       	mov    0x8049ef4,%eax
 8048d1c:	83 f8 ff             	cmp    $0xffffffff,%eax
 8048d1f:	74 13                	je     8048d34 <__do_global_ctors_aux+0x24>
 8048d21:	bb f4 9e 04 08       	mov    $0x8049ef4,%ebx
 8048d26:	66 90                	xchg   %ax,%ax
 8048d28:	83 eb 04             	sub    $0x4,%ebx
 8048d2b:	ff d0                	call   *%eax
 8048d2d:	8b 03                	mov    (%ebx),%eax
 8048d2f:	83 f8 ff             	cmp    $0xffffffff,%eax
 8048d32:	75 f4                	jne    8048d28 <__do_global_ctors_aux+0x18>
 8048d34:	83 c4 04             	add    $0x4,%esp
 8048d37:	5b                   	pop    %ebx
 8048d38:	5d                   	pop    %ebp
 8048d39:	c3                   	ret    
 8048d3a:	90                   	nop
 8048d3b:	90                   	nop

Disassembly of section .fini:

08048d3c <_fini>:
 8048d3c:	53                   	push   %ebx
 8048d3d:	83 ec 08             	sub    $0x8,%esp
 8048d40:	e8 00 00 00 00       	call   8048d45 <_fini+0x9>
 8048d45:	5b                   	pop    %ebx
 8048d46:	81 c3 af 12 00 00    	add    $0x12af,%ebx
 8048d4c:	e8 ef fa ff ff       	call   8048840 <__do_global_dtors_aux>
 8048d51:	83 c4 08             	add    $0x8,%esp
 8048d54:	5b                   	pop    %ebx
 8048d55:	c3                   	ret    
