
backtrace_self:     file format elf32-i386


Disassembly of section .init:

08048630 <_init>:
 8048630:	53                   	push   %ebx
 8048631:	83 ec 08             	sub    $0x8,%esp
 8048634:	e8 00 00 00 00       	call   8048639 <_init+0x9>
 8048639:	5b                   	pop    %ebx
 804863a:	81 c3 bb 19 00 00    	add    $0x19bb,%ebx
 8048640:	8b 83 fc ff ff ff    	mov    -0x4(%ebx),%eax
 8048646:	85 c0                	test   %eax,%eax
 8048648:	74 05                	je     804864f <_init+0x1f>
 804864a:	e8 61 00 00 00       	call   80486b0 <__gmon_start__@plt>
 804864f:	e8 4c 01 00 00       	call   80487a0 <frame_dummy>
 8048654:	e8 d7 03 00 00       	call   8048a30 <__do_global_ctors_aux>
 8048659:	83 c4 08             	add    $0x8,%esp
 804865c:	5b                   	pop    %ebx
 804865d:	c3                   	ret    

Disassembly of section .plt:

08048660 <printf@plt-0x10>:
 8048660:	ff 35 f8 9f 04 08    	pushl  0x8049ff8
 8048666:	ff 25 fc 9f 04 08    	jmp    *0x8049ffc
 804866c:	00 00                	add    %al,(%eax)
	...

08048670 <printf@plt>:
 8048670:	ff 25 00 a0 04 08    	jmp    *0x804a000
 8048676:	68 00 00 00 00       	push   $0x0
 804867b:	e9 e0 ff ff ff       	jmp    8048660 <_init+0x30>

08048680 <free@plt>:
 8048680:	ff 25 04 a0 04 08    	jmp    *0x804a004
 8048686:	68 08 00 00 00       	push   $0x8
 804868b:	e9 d0 ff ff ff       	jmp    8048660 <_init+0x30>

08048690 <signal@plt>:
 8048690:	ff 25 08 a0 04 08    	jmp    *0x804a008
 8048696:	68 10 00 00 00       	push   $0x10
 804869b:	e9 c0 ff ff ff       	jmp    8048660 <_init+0x30>

080486a0 <perror@plt>:
 80486a0:	ff 25 0c a0 04 08    	jmp    *0x804a00c
 80486a6:	68 18 00 00 00       	push   $0x18
 80486ab:	e9 b0 ff ff ff       	jmp    8048660 <_init+0x30>

080486b0 <__gmon_start__@plt>:
 80486b0:	ff 25 10 a0 04 08    	jmp    *0x804a010
 80486b6:	68 20 00 00 00       	push   $0x20
 80486bb:	e9 a0 ff ff ff       	jmp    8048660 <_init+0x30>

080486c0 <exit@plt>:
 80486c0:	ff 25 14 a0 04 08    	jmp    *0x804a014
 80486c6:	68 28 00 00 00       	push   $0x28
 80486cb:	e9 90 ff ff ff       	jmp    8048660 <_init+0x30>

080486d0 <__libc_start_main@plt>:
 80486d0:	ff 25 18 a0 04 08    	jmp    *0x804a018
 80486d6:	68 30 00 00 00       	push   $0x30
 80486db:	e9 80 ff ff ff       	jmp    8048660 <_init+0x30>

080486e0 <fprintf@plt>:
 80486e0:	ff 25 1c a0 04 08    	jmp    *0x804a01c
 80486e6:	68 38 00 00 00       	push   $0x38
 80486eb:	e9 70 ff ff ff       	jmp    8048660 <_init+0x30>

080486f0 <backtrace_symbols@plt>:
 80486f0:	ff 25 20 a0 04 08    	jmp    *0x804a020
 80486f6:	68 40 00 00 00       	push   $0x40
 80486fb:	e9 60 ff ff ff       	jmp    8048660 <_init+0x30>

08048700 <backtrace@plt>:
 8048700:	ff 25 24 a0 04 08    	jmp    *0x804a024
 8048706:	68 48 00 00 00       	push   $0x48
 804870b:	e9 50 ff ff ff       	jmp    8048660 <_init+0x30>

Disassembly of section .text:

08048710 <_start>:
 8048710:	31 ed                	xor    %ebp,%ebp
 8048712:	5e                   	pop    %esi
 8048713:	89 e1                	mov    %esp,%ecx
 8048715:	83 e4 f0             	and    $0xfffffff0,%esp
 8048718:	50                   	push   %eax
 8048719:	54                   	push   %esp
 804871a:	52                   	push   %edx
 804871b:	68 20 8a 04 08       	push   $0x8048a20
 8048720:	68 b0 89 04 08       	push   $0x80489b0
 8048725:	51                   	push   %ecx
 8048726:	56                   	push   %esi
 8048727:	68 6a 89 04 08       	push   $0x804896a
 804872c:	e8 9f ff ff ff       	call   80486d0 <__libc_start_main@plt>
 8048731:	f4                   	hlt    
 8048732:	90                   	nop
 8048733:	90                   	nop
 8048734:	90                   	nop
 8048735:	90                   	nop
 8048736:	90                   	nop
 8048737:	90                   	nop
 8048738:	90                   	nop
 8048739:	90                   	nop
 804873a:	90                   	nop
 804873b:	90                   	nop
 804873c:	90                   	nop
 804873d:	90                   	nop
 804873e:	90                   	nop
 804873f:	90                   	nop

08048740 <__do_global_dtors_aux>:
 8048740:	55                   	push   %ebp
 8048741:	89 e5                	mov    %esp,%ebp
 8048743:	53                   	push   %ebx
 8048744:	83 ec 04             	sub    $0x4,%esp
 8048747:	80 3d 44 a0 04 08 00 	cmpb   $0x0,0x804a044
 804874e:	75 3f                	jne    804878f <__do_global_dtors_aux+0x4f>
 8048750:	a1 48 a0 04 08       	mov    0x804a048,%eax
 8048755:	bb 20 9f 04 08       	mov    $0x8049f20,%ebx
 804875a:	81 eb 1c 9f 04 08    	sub    $0x8049f1c,%ebx
 8048760:	c1 fb 02             	sar    $0x2,%ebx
 8048763:	83 eb 01             	sub    $0x1,%ebx
 8048766:	39 d8                	cmp    %ebx,%eax
 8048768:	73 1e                	jae    8048788 <__do_global_dtors_aux+0x48>
 804876a:	8d b6 00 00 00 00    	lea    0x0(%esi),%esi
 8048770:	83 c0 01             	add    $0x1,%eax
 8048773:	a3 48 a0 04 08       	mov    %eax,0x804a048
 8048778:	ff 14 85 1c 9f 04 08 	call   *0x8049f1c(,%eax,4)
 804877f:	a1 48 a0 04 08       	mov    0x804a048,%eax
 8048784:	39 d8                	cmp    %ebx,%eax
 8048786:	72 e8                	jb     8048770 <__do_global_dtors_aux+0x30>
 8048788:	c6 05 44 a0 04 08 01 	movb   $0x1,0x804a044
 804878f:	83 c4 04             	add    $0x4,%esp
 8048792:	5b                   	pop    %ebx
 8048793:	5d                   	pop    %ebp
 8048794:	c3                   	ret    
 8048795:	8d 74 26 00          	lea    0x0(%esi,%eiz,1),%esi
 8048799:	8d bc 27 00 00 00 00 	lea    0x0(%edi,%eiz,1),%edi

080487a0 <frame_dummy>:
 80487a0:	55                   	push   %ebp
 80487a1:	89 e5                	mov    %esp,%ebp
 80487a3:	83 ec 18             	sub    $0x18,%esp
 80487a6:	a1 24 9f 04 08       	mov    0x8049f24,%eax
 80487ab:	85 c0                	test   %eax,%eax
 80487ad:	74 12                	je     80487c1 <frame_dummy+0x21>
 80487af:	b8 00 00 00 00       	mov    $0x0,%eax
 80487b4:	85 c0                	test   %eax,%eax
 80487b6:	74 09                	je     80487c1 <frame_dummy+0x21>
 80487b8:	c7 04 24 24 9f 04 08 	movl   $0x8049f24,(%esp)
 80487bf:	ff d0                	call   *%eax
 80487c1:	c9                   	leave  
 80487c2:	c3                   	ret    
 80487c3:	90                   	nop

080487c4 <dump>:
	struct frame *next_frame;	/* old EBP */
	void *retaddr;			/* old EIP */
};

void dump(int signo)
{
 80487c4:	55                   	push   %ebp
 80487c5:	89 e5                	mov    %esp,%ebp
 80487c7:	57                   	push   %edi
 80487c8:	53                   	push   %ebx
 80487c9:	81 ec a0 00 00 00    	sub    $0xa0,%esp
	void *buffer[30] = {0};
 80487cf:	8d 9d 74 ff ff ff    	lea    -0x8c(%ebp),%ebx
 80487d5:	b8 00 00 00 00       	mov    $0x0,%eax
 80487da:	ba 1e 00 00 00       	mov    $0x1e,%edx
 80487df:	89 df                	mov    %ebx,%edi
 80487e1:	89 d1                	mov    %edx,%ecx
 80487e3:	f3 ab                	rep stos %eax,%es:(%edi)
	size_t size;
	char **strings = NULL;
 80487e5:	c7 45 f0 00 00 00 00 	movl   $0x0,-0x10(%ebp)
	size_t i = 0;
 80487ec:	c7 45 ec 00 00 00 00 	movl   $0x0,-0x14(%ebp)

	size = backtrace(buffer, 30);
 80487f3:	c7 44 24 04 1e 00 00 	movl   $0x1e,0x4(%esp)
 80487fa:	00 
 80487fb:	8d 85 74 ff ff ff    	lea    -0x8c(%ebp),%eax
 8048801:	89 04 24             	mov    %eax,(%esp)
 8048804:	e8 f7 fe ff ff       	call   8048700 <backtrace@plt>
 8048809:	89 45 f4             	mov    %eax,-0xc(%ebp)
	fprintf(stdout, "Obtained %zd stack frames.nm\n", size);
 804880c:	ba 80 8a 04 08       	mov    $0x8048a80,%edx
 8048811:	a1 40 a0 04 08       	mov    0x804a040,%eax
 8048816:	8b 4d f4             	mov    -0xc(%ebp),%ecx
 8048819:	89 4c 24 08          	mov    %ecx,0x8(%esp)
 804881d:	89 54 24 04          	mov    %edx,0x4(%esp)
 8048821:	89 04 24             	mov    %eax,(%esp)
 8048824:	e8 b7 fe ff ff       	call   80486e0 <fprintf@plt>
	strings = backtrace_symbols(buffer, size);
 8048829:	8b 45 f4             	mov    -0xc(%ebp),%eax
 804882c:	89 44 24 04          	mov    %eax,0x4(%esp)
 8048830:	8d 85 74 ff ff ff    	lea    -0x8c(%ebp),%eax
 8048836:	89 04 24             	mov    %eax,(%esp)
 8048839:	e8 b2 fe ff ff       	call   80486f0 <backtrace_symbols@plt>
 804883e:	89 45 f0             	mov    %eax,-0x10(%ebp)
	if (strings == NULL)
 8048841:	83 7d f0 00          	cmpl   $0x0,-0x10(%ebp)
 8048845:	75 18                	jne    804885f <dump+0x9b>
	{
		perror("backtrace_symbols.");
 8048847:	c7 04 24 9e 8a 04 08 	movl   $0x8048a9e,(%esp)
 804884e:	e8 4d fe ff ff       	call   80486a0 <perror@plt>
		exit(EXIT_FAILURE);
 8048853:	c7 04 24 01 00 00 00 	movl   $0x1,(%esp)
 804885a:	e8 61 fe ff ff       	call   80486c0 <exit@plt>
	}
	
	for (i = 0; i < size; i++)
 804885f:	c7 45 ec 00 00 00 00 	movl   $0x0,-0x14(%ebp)
 8048866:	eb 29                	jmp    8048891 <dump+0xcd>
	{
		fprintf(stdout, "%s\n", strings[i]);
 8048868:	8b 45 ec             	mov    -0x14(%ebp),%eax
 804886b:	c1 e0 02             	shl    $0x2,%eax
 804886e:	03 45 f0             	add    -0x10(%ebp),%eax
 8048871:	8b 08                	mov    (%eax),%ecx
 8048873:	ba b1 8a 04 08       	mov    $0x8048ab1,%edx
 8048878:	a1 40 a0 04 08       	mov    0x804a040,%eax
 804887d:	89 4c 24 08          	mov    %ecx,0x8(%esp)
 8048881:	89 54 24 04          	mov    %edx,0x4(%esp)
 8048885:	89 04 24             	mov    %eax,(%esp)
 8048888:	e8 53 fe ff ff       	call   80486e0 <fprintf@plt>
	{
		perror("backtrace_symbols.");
		exit(EXIT_FAILURE);
	}
	
	for (i = 0; i < size; i++)
 804888d:	83 45 ec 01          	addl   $0x1,-0x14(%ebp)
 8048891:	8b 45 ec             	mov    -0x14(%ebp),%eax
 8048894:	3b 45 f4             	cmp    -0xc(%ebp),%eax
 8048897:	72 cf                	jb     8048868 <dump+0xa4>
	{
		fprintf(stdout, "%s\n", strings[i]);
	}
	free(strings);
 8048899:	8b 45 f0             	mov    -0x10(%ebp),%eax
 804889c:	89 04 24             	mov    %eax,(%esp)
 804889f:	e8 dc fd ff ff       	call   8048680 <free@plt>
	strings = NULL;
 80488a4:	c7 45 f0 00 00 00 00 	movl   $0x0,-0x10(%ebp)
	exit(0);
 80488ab:	c7 04 24 00 00 00 00 	movl   $0x0,(%esp)
 80488b2:	e8 09 fe ff ff       	call   80486c0 <exit@plt>

080488b7 <dump_2>:
}

void dump_2(int signo)
{
 80488b7:	55                   	push   %ebp
 80488b8:	89 e5                	mov    %esp,%ebp
 80488ba:	53                   	push   %ebx
 80488bb:	83 ec 34             	sub    $0x34,%esp
	register struct frame *fp __asm__("%ebp");
	struct frame *pframe = fp;
 80488be:	89 6d f4             	mov    %ebp,-0xc(%ebp)
	int i = 0;
 80488c1:	c7 45 f0 00 00 00 00 	movl   $0x0,-0x10(%ebp)
	void *buffer[6] = {0};
 80488c8:	8d 55 d8             	lea    -0x28(%ebp),%edx
 80488cb:	b9 00 00 00 00       	mov    $0x0,%ecx
 80488d0:	b8 18 00 00 00       	mov    $0x18,%eax
 80488d5:	89 c3                	mov    %eax,%ebx
 80488d7:	83 e3 fc             	and    $0xfffffffc,%ebx
 80488da:	b8 00 00 00 00       	mov    $0x0,%eax
 80488df:	89 0c 02             	mov    %ecx,(%edx,%eax,1)
 80488e2:	83 c0 04             	add    $0x4,%eax
 80488e5:	39 d8                	cmp    %ebx,%eax
 80488e7:	72 f6                	jb     80488df <dump_2+0x28>
 80488e9:	01 c2                	add    %eax,%edx
	while (pframe)
 80488eb:	eb 1f                	jmp    804890c <dump_2+0x55>
	{
		if (i < 6)
 80488ed:	83 7d f0 05          	cmpl   $0x5,-0x10(%ebp)
 80488f1:	7f 11                	jg     8048904 <dump_2+0x4d>
		{
			buffer[i++] = pframe->retaddr;
 80488f3:	8b 45 f0             	mov    -0x10(%ebp),%eax
 80488f6:	8b 55 f4             	mov    -0xc(%ebp),%edx
 80488f9:	8b 52 04             	mov    0x4(%edx),%edx
 80488fc:	89 54 85 d8          	mov    %edx,-0x28(%ebp,%eax,4)
 8048900:	83 45 f0 01          	addl   $0x1,-0x10(%ebp)
		}
		pframe = pframe->next_frame;
 8048904:	8b 45 f4             	mov    -0xc(%ebp),%eax
 8048907:	8b 00                	mov    (%eax),%eax
 8048909:	89 45 f4             	mov    %eax,-0xc(%ebp)
{
	register struct frame *fp __asm__("%ebp");
	struct frame *pframe = fp;
	int i = 0;
	void *buffer[6] = {0};
	while (pframe)
 804890c:	83 7d f4 00          	cmpl   $0x0,-0xc(%ebp)
 8048910:	75 db                	jne    80488ed <dump_2+0x36>
			buffer[i++] = pframe->retaddr;
		}
		pframe = pframe->next_frame;
	}
	
	for (i = 0; i < 6; i++)
 8048912:	c7 45 f0 00 00 00 00 	movl   $0x0,-0x10(%ebp)
 8048919:	eb 1c                	jmp    8048937 <dump_2+0x80>
	{
		printf("%p\n", buffer[i]);
 804891b:	8b 45 f0             	mov    -0x10(%ebp),%eax
 804891e:	8b 54 85 d8          	mov    -0x28(%ebp,%eax,4),%edx
 8048922:	b8 b5 8a 04 08       	mov    $0x8048ab5,%eax
 8048927:	89 54 24 04          	mov    %edx,0x4(%esp)
 804892b:	89 04 24             	mov    %eax,(%esp)
 804892e:	e8 3d fd ff ff       	call   8048670 <printf@plt>
			buffer[i++] = pframe->retaddr;
		}
		pframe = pframe->next_frame;
	}
	
	for (i = 0; i < 6; i++)
 8048933:	83 45 f0 01          	addl   $0x1,-0x10(%ebp)
 8048937:	83 7d f0 05          	cmpl   $0x5,-0x10(%ebp)
 804893b:	7e de                	jle    804891b <dump_2+0x64>
	{
		printf("%p\n", buffer[i]);
	}
	
	exit(0);
 804893d:	c7 04 24 00 00 00 00 	movl   $0x0,(%esp)
 8048944:	e8 77 fd ff ff       	call   80486c0 <exit@plt>

08048949 <func_c>:
}

void func_c()
{
 8048949:	55                   	push   %ebp
 804894a:	89 e5                	mov    %esp,%ebp
	*((volatile char *)0x0) = 0x9999;
 804894c:	b8 00 00 00 00       	mov    $0x0,%eax
 8048951:	c6 00 99             	movb   $0x99,(%eax)
}
 8048954:	5d                   	pop    %ebp
 8048955:	c3                   	ret    

08048956 <func_b>:

void func_b()
{
 8048956:	55                   	push   %ebp
 8048957:	89 e5                	mov    %esp,%ebp
	func_c();
 8048959:	e8 eb ff ff ff       	call   8048949 <func_c>
}
 804895e:	5d                   	pop    %ebp
 804895f:	c3                   	ret    

08048960 <func_a>:

void func_a()
{
 8048960:	55                   	push   %ebp
 8048961:	89 e5                	mov    %esp,%ebp
	func_b();
 8048963:	e8 ee ff ff ff       	call   8048956 <func_b>
}
 8048968:	5d                   	pop    %ebp
 8048969:	c3                   	ret    

0804896a <main>:

int main(int argc, const char *argv[])
{
 804896a:	55                   	push   %ebp
 804896b:	89 e5                	mov    %esp,%ebp
 804896d:	83 e4 f0             	and    $0xfffffff0,%esp
 8048970:	83 ec 10             	sub    $0x10,%esp
	if (signal(SIGSEGV, dump_2) == SIG_ERR)
 8048973:	c7 44 24 04 b7 88 04 	movl   $0x80488b7,0x4(%esp)
 804897a:	08 
 804897b:	c7 04 24 0b 00 00 00 	movl   $0xb,(%esp)
 8048982:	e8 09 fd ff ff       	call   8048690 <signal@plt>
 8048987:	83 f8 ff             	cmp    $0xffffffff,%eax
 804898a:	75 0c                	jne    8048998 <main+0x2e>
		perror("can't catch SIGSEGV");
 804898c:	c7 04 24 b9 8a 04 08 	movl   $0x8048ab9,(%esp)
 8048993:	e8 08 fd ff ff       	call   80486a0 <perror@plt>
	func_a();
 8048998:	e8 c3 ff ff ff       	call   8048960 <func_a>
	return 0;
 804899d:	b8 00 00 00 00       	mov    $0x0,%eax
}
 80489a2:	c9                   	leave  
 80489a3:	c3                   	ret    
 80489a4:	90                   	nop
 80489a5:	90                   	nop
 80489a6:	90                   	nop
 80489a7:	90                   	nop
 80489a8:	90                   	nop
 80489a9:	90                   	nop
 80489aa:	90                   	nop
 80489ab:	90                   	nop
 80489ac:	90                   	nop
 80489ad:	90                   	nop
 80489ae:	90                   	nop
 80489af:	90                   	nop

080489b0 <__libc_csu_init>:
 80489b0:	55                   	push   %ebp
 80489b1:	57                   	push   %edi
 80489b2:	56                   	push   %esi
 80489b3:	53                   	push   %ebx
 80489b4:	e8 69 00 00 00       	call   8048a22 <__i686.get_pc_thunk.bx>
 80489b9:	81 c3 3b 16 00 00    	add    $0x163b,%ebx
 80489bf:	83 ec 1c             	sub    $0x1c,%esp
 80489c2:	8b 6c 24 30          	mov    0x30(%esp),%ebp
 80489c6:	8d bb 20 ff ff ff    	lea    -0xe0(%ebx),%edi
 80489cc:	e8 5f fc ff ff       	call   8048630 <_init>
 80489d1:	8d 83 20 ff ff ff    	lea    -0xe0(%ebx),%eax
 80489d7:	29 c7                	sub    %eax,%edi
 80489d9:	c1 ff 02             	sar    $0x2,%edi
 80489dc:	85 ff                	test   %edi,%edi
 80489de:	74 29                	je     8048a09 <__libc_csu_init+0x59>
 80489e0:	31 f6                	xor    %esi,%esi
 80489e2:	8d b6 00 00 00 00    	lea    0x0(%esi),%esi
 80489e8:	8b 44 24 38          	mov    0x38(%esp),%eax
 80489ec:	89 2c 24             	mov    %ebp,(%esp)
 80489ef:	89 44 24 08          	mov    %eax,0x8(%esp)
 80489f3:	8b 44 24 34          	mov    0x34(%esp),%eax
 80489f7:	89 44 24 04          	mov    %eax,0x4(%esp)
 80489fb:	ff 94 b3 20 ff ff ff 	call   *-0xe0(%ebx,%esi,4)
 8048a02:	83 c6 01             	add    $0x1,%esi
 8048a05:	39 fe                	cmp    %edi,%esi
 8048a07:	75 df                	jne    80489e8 <__libc_csu_init+0x38>
 8048a09:	83 c4 1c             	add    $0x1c,%esp
 8048a0c:	5b                   	pop    %ebx
 8048a0d:	5e                   	pop    %esi
 8048a0e:	5f                   	pop    %edi
 8048a0f:	5d                   	pop    %ebp
 8048a10:	c3                   	ret    
 8048a11:	eb 0d                	jmp    8048a20 <__libc_csu_fini>
 8048a13:	90                   	nop
 8048a14:	90                   	nop
 8048a15:	90                   	nop
 8048a16:	90                   	nop
 8048a17:	90                   	nop
 8048a18:	90                   	nop
 8048a19:	90                   	nop
 8048a1a:	90                   	nop
 8048a1b:	90                   	nop
 8048a1c:	90                   	nop
 8048a1d:	90                   	nop
 8048a1e:	90                   	nop
 8048a1f:	90                   	nop

08048a20 <__libc_csu_fini>:
 8048a20:	f3 c3                	repz ret 

08048a22 <__i686.get_pc_thunk.bx>:
 8048a22:	8b 1c 24             	mov    (%esp),%ebx
 8048a25:	c3                   	ret    
 8048a26:	90                   	nop
 8048a27:	90                   	nop
 8048a28:	90                   	nop
 8048a29:	90                   	nop
 8048a2a:	90                   	nop
 8048a2b:	90                   	nop
 8048a2c:	90                   	nop
 8048a2d:	90                   	nop
 8048a2e:	90                   	nop
 8048a2f:	90                   	nop

08048a30 <__do_global_ctors_aux>:
 8048a30:	55                   	push   %ebp
 8048a31:	89 e5                	mov    %esp,%ebp
 8048a33:	53                   	push   %ebx
 8048a34:	83 ec 04             	sub    $0x4,%esp
 8048a37:	a1 14 9f 04 08       	mov    0x8049f14,%eax
 8048a3c:	83 f8 ff             	cmp    $0xffffffff,%eax
 8048a3f:	74 13                	je     8048a54 <__do_global_ctors_aux+0x24>
 8048a41:	bb 14 9f 04 08       	mov    $0x8049f14,%ebx
 8048a46:	66 90                	xchg   %ax,%ax
 8048a48:	83 eb 04             	sub    $0x4,%ebx
 8048a4b:	ff d0                	call   *%eax
 8048a4d:	8b 03                	mov    (%ebx),%eax
 8048a4f:	83 f8 ff             	cmp    $0xffffffff,%eax
 8048a52:	75 f4                	jne    8048a48 <__do_global_ctors_aux+0x18>
 8048a54:	83 c4 04             	add    $0x4,%esp
 8048a57:	5b                   	pop    %ebx
 8048a58:	5d                   	pop    %ebp
 8048a59:	c3                   	ret    
 8048a5a:	90                   	nop
 8048a5b:	90                   	nop

Disassembly of section .fini:

08048a5c <_fini>:
 8048a5c:	53                   	push   %ebx
 8048a5d:	83 ec 08             	sub    $0x8,%esp
 8048a60:	e8 00 00 00 00       	call   8048a65 <_fini+0x9>
 8048a65:	5b                   	pop    %ebx
 8048a66:	81 c3 8f 15 00 00    	add    $0x158f,%ebx
 8048a6c:	e8 cf fc ff ff       	call   8048740 <__do_global_dtors_aux>
 8048a71:	83 c4 08             	add    $0x8,%esp
 8048a74:	5b                   	pop    %ebx
 8048a75:	c3                   	ret    
