
strlen_asm:     file format elf32-i386


Disassembly of section .init:

080482d4 <_init>:
 80482d4:	53                   	push   %ebx
 80482d5:	83 ec 08             	sub    $0x8,%esp
 80482d8:	e8 00 00 00 00       	call   80482dd <_init+0x9>
 80482dd:	5b                   	pop    %ebx
 80482de:	81 c3 17 1d 00 00    	add    $0x1d17,%ebx
 80482e4:	8b 83 fc ff ff ff    	mov    -0x4(%ebx),%eax
 80482ea:	85 c0                	test   %eax,%eax
 80482ec:	74 05                	je     80482f3 <_init+0x1f>
 80482ee:	e8 3d 00 00 00       	call   8048330 <__gmon_start__@plt>
 80482f3:	e8 f8 00 00 00       	call   80483f0 <frame_dummy>
 80482f8:	e8 73 03 00 00       	call   8048670 <__do_global_ctors_aux>
 80482fd:	83 c4 08             	add    $0x8,%esp
 8048300:	5b                   	pop    %ebx
 8048301:	c3                   	ret    

Disassembly of section .plt:

08048310 <printf@plt-0x10>:
 8048310:	ff 35 f8 9f 04 08    	pushl  0x8049ff8
 8048316:	ff 25 fc 9f 04 08    	jmp    *0x8049ffc
 804831c:	00 00                	add    %al,(%eax)
	...

08048320 <printf@plt>:
 8048320:	ff 25 00 a0 04 08    	jmp    *0x804a000
 8048326:	68 00 00 00 00       	push   $0x0
 804832b:	e9 e0 ff ff ff       	jmp    8048310 <_init+0x3c>

08048330 <__gmon_start__@plt>:
 8048330:	ff 25 04 a0 04 08    	jmp    *0x804a004
 8048336:	68 08 00 00 00       	push   $0x8
 804833b:	e9 d0 ff ff ff       	jmp    8048310 <_init+0x3c>

08048340 <strlen@plt>:
 8048340:	ff 25 08 a0 04 08    	jmp    *0x804a008
 8048346:	68 10 00 00 00       	push   $0x10
 804834b:	e9 c0 ff ff ff       	jmp    8048310 <_init+0x3c>

08048350 <__libc_start_main@plt>:
 8048350:	ff 25 0c a0 04 08    	jmp    *0x804a00c
 8048356:	68 18 00 00 00       	push   $0x18
 804835b:	e9 b0 ff ff ff       	jmp    8048310 <_init+0x3c>

Disassembly of section .text:

08048360 <_start>:
 8048360:	31 ed                	xor    %ebp,%ebp
 8048362:	5e                   	pop    %esi
 8048363:	89 e1                	mov    %esp,%ecx
 8048365:	83 e4 f0             	and    $0xfffffff0,%esp
 8048368:	50                   	push   %eax
 8048369:	54                   	push   %esp
 804836a:	52                   	push   %edx
 804836b:	68 60 86 04 08       	push   $0x8048660
 8048370:	68 f0 85 04 08       	push   $0x80485f0
 8048375:	51                   	push   %ecx
 8048376:	56                   	push   %esi
 8048377:	68 14 84 04 08       	push   $0x8048414
 804837c:	e8 cf ff ff ff       	call   8048350 <__libc_start_main@plt>
 8048381:	f4                   	hlt    
 8048382:	90                   	nop
 8048383:	90                   	nop
 8048384:	90                   	nop
 8048385:	90                   	nop
 8048386:	90                   	nop
 8048387:	90                   	nop
 8048388:	90                   	nop
 8048389:	90                   	nop
 804838a:	90                   	nop
 804838b:	90                   	nop
 804838c:	90                   	nop
 804838d:	90                   	nop
 804838e:	90                   	nop
 804838f:	90                   	nop

08048390 <__do_global_dtors_aux>:
 8048390:	55                   	push   %ebp
 8048391:	89 e5                	mov    %esp,%ebp
 8048393:	53                   	push   %ebx
 8048394:	83 ec 04             	sub    $0x4,%esp
 8048397:	80 3d 18 a0 04 08 00 	cmpb   $0x0,0x804a018
 804839e:	75 3f                	jne    80483df <__do_global_dtors_aux+0x4f>
 80483a0:	a1 1c a0 04 08       	mov    0x804a01c,%eax
 80483a5:	bb 20 9f 04 08       	mov    $0x8049f20,%ebx
 80483aa:	81 eb 1c 9f 04 08    	sub    $0x8049f1c,%ebx
 80483b0:	c1 fb 02             	sar    $0x2,%ebx
 80483b3:	83 eb 01             	sub    $0x1,%ebx
 80483b6:	39 d8                	cmp    %ebx,%eax
 80483b8:	73 1e                	jae    80483d8 <__do_global_dtors_aux+0x48>
 80483ba:	8d b6 00 00 00 00    	lea    0x0(%esi),%esi
 80483c0:	83 c0 01             	add    $0x1,%eax
 80483c3:	a3 1c a0 04 08       	mov    %eax,0x804a01c
 80483c8:	ff 14 85 1c 9f 04 08 	call   *0x8049f1c(,%eax,4)
 80483cf:	a1 1c a0 04 08       	mov    0x804a01c,%eax
 80483d4:	39 d8                	cmp    %ebx,%eax
 80483d6:	72 e8                	jb     80483c0 <__do_global_dtors_aux+0x30>
 80483d8:	c6 05 18 a0 04 08 01 	movb   $0x1,0x804a018
 80483df:	83 c4 04             	add    $0x4,%esp
 80483e2:	5b                   	pop    %ebx
 80483e3:	5d                   	pop    %ebp
 80483e4:	c3                   	ret    
 80483e5:	8d 74 26 00          	lea    0x0(%esi,%eiz,1),%esi
 80483e9:	8d bc 27 00 00 00 00 	lea    0x0(%edi,%eiz,1),%edi

080483f0 <frame_dummy>:
 80483f0:	55                   	push   %ebp
 80483f1:	89 e5                	mov    %esp,%ebp
 80483f3:	83 ec 18             	sub    $0x18,%esp
 80483f6:	a1 24 9f 04 08       	mov    0x8049f24,%eax
 80483fb:	85 c0                	test   %eax,%eax
 80483fd:	74 12                	je     8048411 <frame_dummy+0x21>
 80483ff:	b8 00 00 00 00       	mov    $0x0,%eax
 8048404:	85 c0                	test   %eax,%eax
 8048406:	74 09                	je     8048411 <frame_dummy+0x21>
 8048408:	c7 04 24 24 9f 04 08 	movl   $0x8049f24,(%esp)
 804840f:	ff d0                	call   *%eax
 8048411:	c9                   	leave  
 8048412:	c3                   	ret    
 8048413:	90                   	nop

08048414 <main>:
size_t strlen_asm(const char *str);
size_t strlen_asm_notl(const char *str);
size_t strlen_magic(const char *str);

int main(int argc, const char *argv[])
{
 8048414:	55                   	push   %ebp
 8048415:	89 e5                	mov    %esp,%ebp
 8048417:	83 e4 f0             	and    $0xfffffff0,%esp
 804841a:	83 ec 20             	sub    $0x20,%esp
	const char *string = "hello world~!";
 804841d:	c7 44 24 1c c0 86 04 	movl   $0x80486c0,0x1c(%esp)
 8048424:	08 
	printf("strlen(string) = %d\n",strlen_asm(string));
 8048425:	8b 44 24 1c          	mov    0x1c(%esp),%eax
 8048429:	89 04 24             	mov    %eax,(%esp)
 804842c:	e8 71 00 00 00       	call   80484a2 <strlen_asm>
 8048431:	ba ce 86 04 08       	mov    $0x80486ce,%edx
 8048436:	89 44 24 04          	mov    %eax,0x4(%esp)
 804843a:	89 14 24             	mov    %edx,(%esp)
 804843d:	e8 de fe ff ff       	call   8048320 <printf@plt>
	printf("strlen(string) = %d\n",strlen_asm_notl(string));
 8048442:	8b 44 24 1c          	mov    0x1c(%esp),%eax
 8048446:	89 04 24             	mov    %eax,(%esp)
 8048449:	e8 7a 00 00 00       	call   80484c8 <strlen_asm_notl>
 804844e:	ba ce 86 04 08       	mov    $0x80486ce,%edx
 8048453:	89 44 24 04          	mov    %eax,0x4(%esp)
 8048457:	89 14 24             	mov    %edx,(%esp)
 804845a:	e8 c1 fe ff ff       	call   8048320 <printf@plt>
	printf("strlen(string) = %d\n",strlen_magic(string));
 804845f:	8b 44 24 1c          	mov    0x1c(%esp),%eax
 8048463:	89 04 24             	mov    %eax,(%esp)
 8048466:	e8 7b 00 00 00       	call   80484e6 <strlen_magic>
 804846b:	ba ce 86 04 08       	mov    $0x80486ce,%edx
 8048470:	89 44 24 04          	mov    %eax,0x4(%esp)
 8048474:	89 14 24             	mov    %edx,(%esp)
 8048477:	e8 a4 fe ff ff       	call   8048320 <printf@plt>
	printf("strlen(string) = %d\n", strlen(string));
 804847c:	8b 44 24 1c          	mov    0x1c(%esp),%eax
 8048480:	89 04 24             	mov    %eax,(%esp)
 8048483:	e8 b8 fe ff ff       	call   8048340 <strlen@plt>
 8048488:	89 c2                	mov    %eax,%edx
 804848a:	b8 ce 86 04 08       	mov    $0x80486ce,%eax
 804848f:	89 54 24 04          	mov    %edx,0x4(%esp)
 8048493:	89 04 24             	mov    %eax,(%esp)
 8048496:	e8 85 fe ff ff       	call   8048320 <printf@plt>

	return 0;
 804849b:	b8 00 00 00 00       	mov    $0x0,%eax
}
 80484a0:	c9                   	leave  
 80484a1:	c3                   	ret    

080484a2 <strlen_asm>:

size_t strlen_asm(const char *str)
{
 80484a2:	55                   	push   %ebp
 80484a3:	89 e5                	mov    %esp,%ebp
 80484a5:	57                   	push   %edi
	register size_t __cnt __asm__("cx"); 
	__asm__ volatile (
 80484a6:	8b 55 08             	mov    0x8(%ebp),%edx
 80484a9:	b8 00 00 00 00       	mov    $0x0,%eax
 80484ae:	b9 ff ff ff ff       	mov    $0xffffffff,%ecx
 80484b3:	89 d7                	mov    %edx,%edi
 80484b5:	fc                   	cld    
 80484b6:	f2 ae                	repnz scas %es:(%edi),%al
		"scasb		\n\t"	/* %0 %1 %2 */
		:"=c"(__cnt)				/* output */ 
		:"D"(str), "a"('\0'), "0"(0xffffffff)	/* input  */
		/* cloberred register */
	);
	return -2 - __cnt;
 80484b8:	89 c8                	mov    %ecx,%eax
 80484ba:	ba fe ff ff ff       	mov    $0xfffffffe,%edx
 80484bf:	89 d1                	mov    %edx,%ecx
 80484c1:	29 c1                	sub    %eax,%ecx
 80484c3:	89 c8                	mov    %ecx,%eax
}
 80484c5:	5f                   	pop    %edi
 80484c6:	5d                   	pop    %ebp
 80484c7:	c3                   	ret    

080484c8 <strlen_asm_notl>:

size_t strlen_asm_notl(const char *str)
{
 80484c8:	55                   	push   %ebp
 80484c9:	89 e5                	mov    %esp,%ebp
 80484cb:	57                   	push   %edi
	register size_t __cnt __asm__("cx");
	__asm__ volatile (
 80484cc:	8b 55 08             	mov    0x8(%ebp),%edx
 80484cf:	b8 00 00 00 00       	mov    $0x0,%eax
 80484d4:	b9 ff ff ff ff       	mov    $0xffffffff,%ecx
 80484d9:	89 d7                	mov    %edx,%edi
 80484db:	fc                   	cld    
 80484dc:	f2 ae                	repnz scas %es:(%edi),%al
 80484de:	f7 d1                	not    %ecx
 80484e0:	49                   	dec    %ecx
		"decl %0	\n\t"
		:"=c"(__cnt)				/* output */ 
		:"D"(str), "a"('\0'), "0"(0xffffffff)	/* input  */
		/* cloberred register */
	);
	return __cnt;
 80484e1:	89 c8                	mov    %ecx,%eax
}
 80484e3:	5f                   	pop    %edi
 80484e4:	5d                   	pop    %ebp
 80484e5:	c3                   	ret    

080484e6 <strlen_magic>:

size_t strlen_magic(const char *str)
{
 80484e6:	55                   	push   %ebp
 80484e7:	89 e5                	mov    %esp,%ebp
 80484e9:	83 ec 20             	sub    $0x20,%esp
	const char *char_ptr = NULL;
 80484ec:	c7 45 fc 00 00 00 00 	movl   $0x0,-0x4(%ebp)
	const unsigned long *longword_ptr = NULL;
 80484f3:	c7 45 f8 00 00 00 00 	movl   $0x0,-0x8(%ebp)
	unsigned long int longword, magic_bits;

	for (char_ptr = str; ((unsigned long int)(char_ptr) 
 80484fa:	8b 45 08             	mov    0x8(%ebp),%eax
 80484fd:	89 45 fc             	mov    %eax,-0x4(%ebp)
 8048500:	eb 1f                	jmp    8048521 <strlen_magic+0x3b>
			&(sizeof(unsigned long int) - 1)) != 0; ++char_ptr)
	{
		if (*char_ptr == '\0')
 8048502:	8b 45 fc             	mov    -0x4(%ebp),%eax
 8048505:	0f b6 00             	movzbl (%eax),%eax
 8048508:	84 c0                	test   %al,%al
 804850a:	75 11                	jne    804851d <strlen_magic+0x37>
			return char_ptr - str;
 804850c:	8b 55 fc             	mov    -0x4(%ebp),%edx
 804850f:	8b 45 08             	mov    0x8(%ebp),%eax
 8048512:	89 d1                	mov    %edx,%ecx
 8048514:	29 c1                	sub    %eax,%ecx
 8048516:	89 c8                	mov    %ecx,%eax
 8048518:	e9 c4 00 00 00       	jmp    80485e1 <strlen_magic+0xfb>
	const char *char_ptr = NULL;
	const unsigned long *longword_ptr = NULL;
	unsigned long int longword, magic_bits;

	for (char_ptr = str; ((unsigned long int)(char_ptr) 
			&(sizeof(unsigned long int) - 1)) != 0; ++char_ptr)
 804851d:	83 45 fc 01          	addl   $0x1,-0x4(%ebp)
{
	const char *char_ptr = NULL;
	const unsigned long *longword_ptr = NULL;
	unsigned long int longword, magic_bits;

	for (char_ptr = str; ((unsigned long int)(char_ptr) 
 8048521:	8b 45 fc             	mov    -0x4(%ebp),%eax
 8048524:	83 e0 03             	and    $0x3,%eax
 8048527:	85 c0                	test   %eax,%eax
 8048529:	75 d7                	jne    8048502 <strlen_magic+0x1c>
	{
		if (*char_ptr == '\0')
			return char_ptr - str;
	}

	longword_ptr = (unsigned long int *)char_ptr;
 804852b:	8b 45 fc             	mov    -0x4(%ebp),%eax
 804852e:	89 45 f8             	mov    %eax,-0x8(%ebp)
	magic_bits = 0x7efefeffL;
 8048531:	c7 45 f0 ff fe fe 7e 	movl   $0x7efefeff,-0x10(%ebp)
 8048538:	eb 04                	jmp    804853e <strlen_magic+0x58>
			if (cp[2] == 0)
				return cp - str + 2;
			if (cp[3] == 0)
				return cp - str + 3;
		}
	}
 804853a:	90                   	nop
 804853b:	eb 01                	jmp    804853e <strlen_magic+0x58>
 804853d:	90                   	nop
	longword_ptr = (unsigned long int *)char_ptr;
	magic_bits = 0x7efefeffL;

	for (;;)
	{
		longword = *longword_ptr++;
 804853e:	8b 45 f8             	mov    -0x8(%ebp),%eax
 8048541:	8b 00                	mov    (%eax),%eax
 8048543:	89 45 f4             	mov    %eax,-0xc(%ebp)
 8048546:	83 45 f8 04          	addl   $0x4,-0x8(%ebp)
		if ((((longword + magic_bits) ^ ~longword) & ~magic_bits) != 0)
 804854a:	8b 45 f0             	mov    -0x10(%ebp),%eax
 804854d:	8b 55 f4             	mov    -0xc(%ebp),%edx
 8048550:	01 c2                	add    %eax,%edx
 8048552:	8b 45 f4             	mov    -0xc(%ebp),%eax
 8048555:	f7 d0                	not    %eax
 8048557:	31 c2                	xor    %eax,%edx
 8048559:	8b 45 f0             	mov    -0x10(%ebp),%eax
 804855c:	f7 d0                	not    %eax
 804855e:	21 d0                	and    %edx,%eax
 8048560:	85 c0                	test   %eax,%eax
 8048562:	74 d6                	je     804853a <strlen_magic+0x54>
		{
			const char *cp = (const char *)(longword_ptr - 1);
 8048564:	8b 45 f8             	mov    -0x8(%ebp),%eax
 8048567:	83 e8 04             	sub    $0x4,%eax
 804856a:	89 45 ec             	mov    %eax,-0x14(%ebp)
			if (cp[0] == 0)
 804856d:	8b 45 ec             	mov    -0x14(%ebp),%eax
 8048570:	0f b6 00             	movzbl (%eax),%eax
 8048573:	84 c0                	test   %al,%al
 8048575:	75 0e                	jne    8048585 <strlen_magic+0x9f>
				return cp - str;
 8048577:	8b 55 ec             	mov    -0x14(%ebp),%edx
 804857a:	8b 45 08             	mov    0x8(%ebp),%eax
 804857d:	89 d1                	mov    %edx,%ecx
 804857f:	29 c1                	sub    %eax,%ecx
 8048581:	89 c8                	mov    %ecx,%eax
 8048583:	eb 5c                	jmp    80485e1 <strlen_magic+0xfb>
			if (cp[1] == 0)
 8048585:	8b 45 ec             	mov    -0x14(%ebp),%eax
 8048588:	83 c0 01             	add    $0x1,%eax
 804858b:	0f b6 00             	movzbl (%eax),%eax
 804858e:	84 c0                	test   %al,%al
 8048590:	75 11                	jne    80485a3 <strlen_magic+0xbd>
				return cp - str + 1;
 8048592:	8b 55 ec             	mov    -0x14(%ebp),%edx
 8048595:	8b 45 08             	mov    0x8(%ebp),%eax
 8048598:	89 d1                	mov    %edx,%ecx
 804859a:	29 c1                	sub    %eax,%ecx
 804859c:	89 c8                	mov    %ecx,%eax
 804859e:	83 c0 01             	add    $0x1,%eax
 80485a1:	eb 3e                	jmp    80485e1 <strlen_magic+0xfb>
			if (cp[2] == 0)
 80485a3:	8b 45 ec             	mov    -0x14(%ebp),%eax
 80485a6:	83 c0 02             	add    $0x2,%eax
 80485a9:	0f b6 00             	movzbl (%eax),%eax
 80485ac:	84 c0                	test   %al,%al
 80485ae:	75 11                	jne    80485c1 <strlen_magic+0xdb>
				return cp - str + 2;
 80485b0:	8b 55 ec             	mov    -0x14(%ebp),%edx
 80485b3:	8b 45 08             	mov    0x8(%ebp),%eax
 80485b6:	89 d1                	mov    %edx,%ecx
 80485b8:	29 c1                	sub    %eax,%ecx
 80485ba:	89 c8                	mov    %ecx,%eax
 80485bc:	83 c0 02             	add    $0x2,%eax
 80485bf:	eb 20                	jmp    80485e1 <strlen_magic+0xfb>
			if (cp[3] == 0)
 80485c1:	8b 45 ec             	mov    -0x14(%ebp),%eax
 80485c4:	83 c0 03             	add    $0x3,%eax
 80485c7:	0f b6 00             	movzbl (%eax),%eax
 80485ca:	84 c0                	test   %al,%al
 80485cc:	0f 85 6b ff ff ff    	jne    804853d <strlen_magic+0x57>
				return cp - str + 3;
 80485d2:	8b 55 ec             	mov    -0x14(%ebp),%edx
 80485d5:	8b 45 08             	mov    0x8(%ebp),%eax
 80485d8:	89 d1                	mov    %edx,%ecx
 80485da:	29 c1                	sub    %eax,%ecx
 80485dc:	89 c8                	mov    %ecx,%eax
 80485de:	83 c0 03             	add    $0x3,%eax
		}
	}
}
 80485e1:	c9                   	leave  
 80485e2:	c3                   	ret    
 80485e3:	90                   	nop
 80485e4:	90                   	nop
 80485e5:	90                   	nop
 80485e6:	90                   	nop
 80485e7:	90                   	nop
 80485e8:	90                   	nop
 80485e9:	90                   	nop
 80485ea:	90                   	nop
 80485eb:	90                   	nop
 80485ec:	90                   	nop
 80485ed:	90                   	nop
 80485ee:	90                   	nop
 80485ef:	90                   	nop

080485f0 <__libc_csu_init>:
 80485f0:	55                   	push   %ebp
 80485f1:	57                   	push   %edi
 80485f2:	56                   	push   %esi
 80485f3:	53                   	push   %ebx
 80485f4:	e8 69 00 00 00       	call   8048662 <__i686.get_pc_thunk.bx>
 80485f9:	81 c3 fb 19 00 00    	add    $0x19fb,%ebx
 80485ff:	83 ec 1c             	sub    $0x1c,%esp
 8048602:	8b 6c 24 30          	mov    0x30(%esp),%ebp
 8048606:	8d bb 20 ff ff ff    	lea    -0xe0(%ebx),%edi
 804860c:	e8 c3 fc ff ff       	call   80482d4 <_init>
 8048611:	8d 83 20 ff ff ff    	lea    -0xe0(%ebx),%eax
 8048617:	29 c7                	sub    %eax,%edi
 8048619:	c1 ff 02             	sar    $0x2,%edi
 804861c:	85 ff                	test   %edi,%edi
 804861e:	74 29                	je     8048649 <__libc_csu_init+0x59>
 8048620:	31 f6                	xor    %esi,%esi
 8048622:	8d b6 00 00 00 00    	lea    0x0(%esi),%esi
 8048628:	8b 44 24 38          	mov    0x38(%esp),%eax
 804862c:	89 2c 24             	mov    %ebp,(%esp)
 804862f:	89 44 24 08          	mov    %eax,0x8(%esp)
 8048633:	8b 44 24 34          	mov    0x34(%esp),%eax
 8048637:	89 44 24 04          	mov    %eax,0x4(%esp)
 804863b:	ff 94 b3 20 ff ff ff 	call   *-0xe0(%ebx,%esi,4)
 8048642:	83 c6 01             	add    $0x1,%esi
 8048645:	39 fe                	cmp    %edi,%esi
 8048647:	75 df                	jne    8048628 <__libc_csu_init+0x38>
 8048649:	83 c4 1c             	add    $0x1c,%esp
 804864c:	5b                   	pop    %ebx
 804864d:	5e                   	pop    %esi
 804864e:	5f                   	pop    %edi
 804864f:	5d                   	pop    %ebp
 8048650:	c3                   	ret    
 8048651:	eb 0d                	jmp    8048660 <__libc_csu_fini>
 8048653:	90                   	nop
 8048654:	90                   	nop
 8048655:	90                   	nop
 8048656:	90                   	nop
 8048657:	90                   	nop
 8048658:	90                   	nop
 8048659:	90                   	nop
 804865a:	90                   	nop
 804865b:	90                   	nop
 804865c:	90                   	nop
 804865d:	90                   	nop
 804865e:	90                   	nop
 804865f:	90                   	nop

08048660 <__libc_csu_fini>:
 8048660:	f3 c3                	repz ret 

08048662 <__i686.get_pc_thunk.bx>:
 8048662:	8b 1c 24             	mov    (%esp),%ebx
 8048665:	c3                   	ret    
 8048666:	90                   	nop
 8048667:	90                   	nop
 8048668:	90                   	nop
 8048669:	90                   	nop
 804866a:	90                   	nop
 804866b:	90                   	nop
 804866c:	90                   	nop
 804866d:	90                   	nop
 804866e:	90                   	nop
 804866f:	90                   	nop

08048670 <__do_global_ctors_aux>:
 8048670:	55                   	push   %ebp
 8048671:	89 e5                	mov    %esp,%ebp
 8048673:	53                   	push   %ebx
 8048674:	83 ec 04             	sub    $0x4,%esp
 8048677:	a1 14 9f 04 08       	mov    0x8049f14,%eax
 804867c:	83 f8 ff             	cmp    $0xffffffff,%eax
 804867f:	74 13                	je     8048694 <__do_global_ctors_aux+0x24>
 8048681:	bb 14 9f 04 08       	mov    $0x8049f14,%ebx
 8048686:	66 90                	xchg   %ax,%ax
 8048688:	83 eb 04             	sub    $0x4,%ebx
 804868b:	ff d0                	call   *%eax
 804868d:	8b 03                	mov    (%ebx),%eax
 804868f:	83 f8 ff             	cmp    $0xffffffff,%eax
 8048692:	75 f4                	jne    8048688 <__do_global_ctors_aux+0x18>
 8048694:	83 c4 04             	add    $0x4,%esp
 8048697:	5b                   	pop    %ebx
 8048698:	5d                   	pop    %ebp
 8048699:	c3                   	ret    
 804869a:	90                   	nop
 804869b:	90                   	nop

Disassembly of section .fini:

0804869c <_fini>:
 804869c:	53                   	push   %ebx
 804869d:	83 ec 08             	sub    $0x8,%esp
 80486a0:	e8 00 00 00 00       	call   80486a5 <_fini+0x9>
 80486a5:	5b                   	pop    %ebx
 80486a6:	81 c3 4f 19 00 00    	add    $0x194f,%ebx
 80486ac:	e8 df fc ff ff       	call   8048390 <__do_global_dtors_aux>
 80486b1:	83 c4 08             	add    $0x8,%esp
 80486b4:	5b                   	pop    %ebx
 80486b5:	c3                   	ret    
